	.file	"ab_preprocessor2.cpp"
	.text
.Ltext0:
	.section	.rodata
	.align 4
	.type	_ZL3TAU, @object
	.size	_ZL3TAU, 4
_ZL3TAU:
	.long	1086918619
	.text
	.globl	_Z20abm_AllocateOsMemoryPvm
	.type	_Z20abm_AllocateOsMemoryPvm, @function
_Z20abm_AllocateOsMemoryPvm:
.LFB0:
	.file 1 "/home/amos/prog/c/amos_libraries/preprocessor/../include/ab_memory_linux.h"
	.loc 1 12 0
	.cfi_startproc
	pushq	%rbp
	.cfi_def_cfa_offset 16
	.cfi_offset 6, -16
	movq	%rsp, %rbp
	.cfi_def_cfa_register 6
	subq	$32, %rsp
	movq	%rdi, -24(%rbp)
	movq	%rsi, -32(%rbp)
	.loc 1 16 0
	movq	-32(%rbp), %rsi
	movq	-24(%rbp), %rax
	movl	$0, %r9d
	movl	$-1, %r8d
	movl	$34, %ecx
	movl	$3, %edx
	movq	%rax, %rdi
	call	mmap@PLT
	movq	%rax, -8(%rbp)
	.loc 1 18 0
	movq	-8(%rbp), %rax
	.loc 1 20 0
	leave
	.cfi_def_cfa 7, 8
	ret
	.cfi_endproc
.LFE0:
	.size	_Z20abm_AllocateOsMemoryPvm, .-_Z20abm_AllocateOsMemoryPvm
	.globl	_Z22abm_DeallocateOsMemoryPvm
	.type	_Z22abm_DeallocateOsMemoryPvm, @function
_Z22abm_DeallocateOsMemoryPvm:
.LFB1:
	.loc 1 24 0
	.cfi_startproc
	pushq	%rbp
	.cfi_def_cfa_offset 16
	.cfi_offset 6, -16
	movq	%rsp, %rbp
	.cfi_def_cfa_register 6
	subq	$16, %rsp
	movq	%rdi, -8(%rbp)
	movq	%rsi, -16(%rbp)
	.loc 1 25 0
	movq	-16(%rbp), %rdx
	movq	-8(%rbp), %rax
	movq	%rdx, %rsi
	movq	%rax, %rdi
	call	munmap@PLT
	.loc 1 26 0
	nop
	leave
	.cfi_def_cfa 7, 8
	ret
	.cfi_endproc
.LFE1:
	.size	_Z22abm_DeallocateOsMemoryPvm, .-_Z22abm_DeallocateOsMemoryPvm
	.globl	_Z14abm_InitMemoryPvm
	.type	_Z14abm_InitMemoryPvm, @function
_Z14abm_InitMemoryPvm:
.LFB2:
	.file 2 "/home/amos/prog/c/amos_libraries/preprocessor/../include/ab_memory.h"
	.loc 2 55 0
	.cfi_startproc
	pushq	%rbp
	.cfi_def_cfa_offset 16
	.cfi_offset 6, -16
	movq	%rsp, %rbp
	.cfi_def_cfa_register 6
	subq	$48, %rsp
	movq	%rdi, -24(%rbp)
	movq	%rsi, -32(%rbp)
	movq	%rdx, -40(%rbp)
	.loc 2 55 0
	movq	%fs:40, %rax
	movq	%rax, -8(%rbp)
	xorl	%eax, %eax
	.loc 2 56 0
	movq	-24(%rbp), %rax
	movq	$0, (%rax)
	movq	$0, 8(%rax)
	movq	$0, 16(%rax)
	.loc 2 57 0
	movq	-24(%rbp), %rax
	movq	-32(%rbp), %rdx
	movq	%rdx, (%rax)
	.loc 2 58 0
	movq	-24(%rbp), %rax
	movq	-40(%rbp), %rdx
	movq	%rdx, 8(%rax)
	.loc 2 59 0
	movq	-24(%rbp), %rax
	movq	$0, 16(%rax)
	.loc 2 61 0
	nop
	.loc 2 62 0
	movq	-24(%rbp), %rax
	movq	-8(%rbp), %rcx
	xorq	%fs:40, %rcx
	je	.L6
	call	__stack_chk_fail@PLT
.L6:
	leave
	.cfi_def_cfa 7, 8
	ret
	.cfi_endproc
.LFE2:
	.size	_Z14abm_InitMemoryPvm, .-_Z14abm_InitMemoryPvm
	.globl	_Z18abm_CreateSubArenaP12memory_arenam
	.type	_Z18abm_CreateSubArenaP12memory_arenam, @function
_Z18abm_CreateSubArenaP12memory_arenam:
.LFB3:
	.loc 2 66 0
	.cfi_startproc
	pushq	%rbp
	.cfi_def_cfa_offset 16
	.cfi_offset 6, -16
	movq	%rsp, %rbp
	.cfi_def_cfa_register 6
	subq	$48, %rsp
	movq	%rdi, -24(%rbp)
	movq	%rsi, -32(%rbp)
	movq	%rdx, -40(%rbp)
	.loc 2 66 0
	movq	%fs:40, %rax
	movq	%rax, -8(%rbp)
	xorl	%eax, %eax
	.loc 2 67 0
	movq	-24(%rbp), %rax
	movq	$0, (%rax)
	movq	$0, 8(%rax)
	movq	$0, 16(%rax)
	.loc 2 68 0
	movq	-40(%rbp), %rcx
	movq	-32(%rbp), %rax
	movl	$1, %edx
	movq	%rcx, %rsi
	movq	%rax, %rdi
	call	_Z13abm_PushSize_P12memory_arenama
	movq	%rax, %rdx
	movq	-24(%rbp), %rax
	movq	%rdx, (%rax)
	.loc 2 69 0
	movq	-24(%rbp), %rax
	movq	-40(%rbp), %rdx
	movq	%rdx, 8(%rax)
	.loc 2 70 0
	movq	-24(%rbp), %rax
	movq	$0, 16(%rax)
	.loc 2 72 0
	nop
	.loc 2 73 0
	movq	-24(%rbp), %rax
	movq	-8(%rbp), %rcx
	xorq	%fs:40, %rcx
	je	.L9
	call	__stack_chk_fail@PLT
.L9:
	leave
	.cfi_def_cfa 7, 8
	ret
	.cfi_endproc
.LFE3:
	.size	_Z18abm_CreateSubArenaP12memory_arenam, .-_Z18abm_CreateSubArenaP12memory_arenam
	.globl	_Z13abm_PushSize_P12memory_arenama
	.type	_Z13abm_PushSize_P12memory_arenama, @function
_Z13abm_PushSize_P12memory_arenama:
.LFB4:
	.loc 2 77 0
	.cfi_startproc
	pushq	%rbp
	.cfi_def_cfa_offset 16
	.cfi_offset 6, -16
	movq	%rsp, %rbp
	.cfi_def_cfa_register 6
	movq	%rdi, -24(%rbp)
	movq	%rsi, -32(%rbp)
	movl	%edx, %eax
	movb	%al, -36(%rbp)
	.loc 2 78 0
	movq	$0, -8(%rbp)
	.loc 2 81 0
	movq	-24(%rbp), %rax
	movq	(%rax), %rdx
	movq	-24(%rbp), %rax
	movq	16(%rax), %rax
	addq	%rdx, %rax
	movq	%rax, -8(%rbp)
	.loc 2 82 0
	movq	-24(%rbp), %rax
	movq	16(%rax), %rdx
	movq	-32(%rbp), %rax
	addq	%rax, %rdx
	movq	-24(%rbp), %rax
	movq	%rdx, 16(%rax)
.LBB2:
	.loc 2 84 0
	cmpb	$0, -36(%rbp)
	je	.L11
.LBB3:
.LBB4:
	.loc 2 86 0
	movq	$0, -16(%rbp)
.L13:
	.loc 2 86 0 is_stmt 0 discriminator 3
	movq	-16(%rbp), %rax
	cmpq	-32(%rbp), %rax
	jnb	.L11
	.loc 2 88 0 is_stmt 1 discriminator 2
	movq	-8(%rbp), %rdx
	movq	-16(%rbp), %rax
	addq	%rdx, %rax
	movb	$0, (%rax)
	.loc 2 86 0 discriminator 2
	addq	$1, -16(%rbp)
	jmp	.L13
.L11:
.LBE4:
.LBE3:
.LBE2:
	.loc 2 92 0
	movq	-8(%rbp), %rax
	.loc 2 93 0
	popq	%rbp
	.cfi_def_cfa 7, 8
	ret
	.cfi_endproc
.LFE4:
	.size	_Z13abm_PushSize_P12memory_arenama, .-_Z13abm_PushSize_P12memory_arenama
	.globl	_Z24abm_BeginTemporaryMemoryP12memory_arena
	.type	_Z24abm_BeginTemporaryMemoryP12memory_arena, @function
_Z24abm_BeginTemporaryMemoryP12memory_arena:
.LFB5:
	.loc 2 97 0
	.cfi_startproc
	pushq	%rbp
	.cfi_def_cfa_offset 16
	.cfi_offset 6, -16
	movq	%rsp, %rbp
	.cfi_def_cfa_register 6
	subq	$48, %rsp
	movq	%rdi, -40(%rbp)
	.loc 2 97 0
	movq	%fs:40, %rax
	movq	%rax, -8(%rbp)
	xorl	%eax, %eax
	.loc 2 98 0
	movq	$0, -32(%rbp)
	movq	$0, -24(%rbp)
	.loc 2 99 0
	movq	-40(%rbp), %rax
	movq	%rax, -32(%rbp)
	.loc 2 100 0
	movq	-40(%rbp), %rax
	movq	16(%rax), %rax
	movq	%rax, -24(%rbp)
	.loc 2 102 0
	movq	-32(%rbp), %rax
	movq	-24(%rbp), %rdx
	.loc 2 103 0
	movq	-8(%rbp), %rcx
	xorq	%fs:40, %rcx
	je	.L17
	call	__stack_chk_fail@PLT
.L17:
	leave
	.cfi_def_cfa 7, 8
	ret
	.cfi_endproc
.LFE5:
	.size	_Z24abm_BeginTemporaryMemoryP12memory_arena, .-_Z24abm_BeginTemporaryMemoryP12memory_arena
	.globl	_Z22abm_EndTemporaryMemory16temporary_memory
	.type	_Z22abm_EndTemporaryMemory16temporary_memory, @function
_Z22abm_EndTemporaryMemory16temporary_memory:
.LFB6:
	.loc 2 107 0
	.cfi_startproc
	pushq	%rbp
	.cfi_def_cfa_offset 16
	.cfi_offset 6, -16
	movq	%rsp, %rbp
	.cfi_def_cfa_register 6
	movq	%rdi, %rax
	movq	%rsi, %rcx
	movq	%rcx, %rdx
	movq	%rax, -16(%rbp)
	movq	%rdx, -8(%rbp)
	.loc 2 108 0
	movq	-16(%rbp), %rax
	movq	-8(%rbp), %rdx
	movq	%rdx, 16(%rax)
	.loc 2 109 0
	nop
	popq	%rbp
	.cfi_def_cfa 7, 8
	ret
	.cfi_endproc
.LFE6:
	.size	_Z22abm_EndTemporaryMemory16temporary_memory, .-_Z22abm_EndTemporaryMemory16temporary_memory
	.globl	_Z15abm_ResetMemoryP12memory_arena
	.type	_Z15abm_ResetMemoryP12memory_arena, @function
_Z15abm_ResetMemoryP12memory_arena:
.LFB7:
	.loc 2 114 0
	.cfi_startproc
	pushq	%rbp
	.cfi_def_cfa_offset 16
	.cfi_offset 6, -16
	movq	%rsp, %rbp
	.cfi_def_cfa_register 6
	movq	%rdi, -8(%rbp)
	.loc 2 115 0
	movq	-8(%rbp), %rax
	movq	$0, 16(%rax)
	.loc 2 116 0
	nop
	popq	%rbp
	.cfi_def_cfa 7, 8
	ret
	.cfi_endproc
.LFE7:
	.size	_Z15abm_ResetMemoryP12memory_arena, .-_Z15abm_ResetMemoryP12memory_arena
	.section	.text._Z17abm_GetMemoryLeftP12memory_arena,"axG",@progbits,_Z17abm_GetMemoryLeftP12memory_arena,comdat
	.weak	_Z17abm_GetMemoryLeftP12memory_arena
	.type	_Z17abm_GetMemoryLeftP12memory_arena, @function
_Z17abm_GetMemoryLeftP12memory_arena:
.LFB8:
	.loc 2 120 0
	.cfi_startproc
	pushq	%rbp
	.cfi_def_cfa_offset 16
	.cfi_offset 6, -16
	movq	%rsp, %rbp
	.cfi_def_cfa_register 6
	movq	%rdi, -24(%rbp)
	.loc 2 121 0
	movq	-24(%rbp), %rax
	movq	8(%rax), %rdx
	movq	-24(%rbp), %rax
	movq	16(%rax), %rax
	subq	%rax, %rdx
	movq	%rdx, %rax
	movq	%rax, -8(%rbp)
	.loc 2 123 0
	movq	-8(%rbp), %rax
	.loc 2 124 0
	popq	%rbp
	.cfi_def_cfa 7, 8
	ret
	.cfi_endproc
.LFE8:
	.size	_Z17abm_GetMemoryLeftP12memory_arena, .-_Z17abm_GetMemoryLeftP12memory_arena
	.section	.text._ZN13abs_stringptrC2EPKcj,"axG",@progbits,_ZN13abs_stringptrC5EPKcj,comdat
	.align 2
	.weak	_ZN13abs_stringptrC2EPKcj
	.type	_ZN13abs_stringptrC2EPKcj, @function
_ZN13abs_stringptrC2EPKcj:
.LFB10:
	.file 3 "/home/amos/prog/c/amos_libraries/preprocessor/../include/ab_string.h"
	.loc 3 15 0
	.cfi_startproc
	pushq	%rbp
	.cfi_def_cfa_offset 16
	.cfi_offset 6, -16
	movq	%rsp, %rbp
	.cfi_def_cfa_register 6
	movq	%rdi, -8(%rbp)
	movq	%rsi, -16(%rbp)
	movl	%edx, -20(%rbp)
.LBB5:
	.loc 3 15 0
	movq	-8(%rbp), %rax
	movq	-16(%rbp), %rdx
	movq	%rdx, (%rax)
	movq	-8(%rbp), %rax
	movl	-20(%rbp), %edx
	movl	%edx, 8(%rax)
.LBE5:
	nop
	popq	%rbp
	.cfi_def_cfa 7, 8
	ret
	.cfi_endproc
.LFE10:
	.size	_ZN13abs_stringptrC2EPKcj, .-_ZN13abs_stringptrC2EPKcj
	.weak	_ZN13abs_stringptrC1EPKcj
	.set	_ZN13abs_stringptrC1EPKcj,_ZN13abs_stringptrC2EPKcj
	.section	.text._ZN13abs_stringptrC2EPKc,"axG",@progbits,_ZN13abs_stringptrC5EPKc,comdat
	.align 2
	.weak	_ZN13abs_stringptrC2EPKc
	.type	_ZN13abs_stringptrC2EPKc, @function
_ZN13abs_stringptrC2EPKc:
.LFB16:
	.loc 3 17 0
	.cfi_startproc
	pushq	%rbp
	.cfi_def_cfa_offset 16
	.cfi_offset 6, -16
	movq	%rsp, %rbp
	.cfi_def_cfa_register 6
	subq	$16, %rsp
	movq	%rdi, -8(%rbp)
	movq	%rsi, -16(%rbp)
.LBB6:
	.loc 3 17 0
	movq	-8(%rbp), %rax
	movq	-16(%rbp), %rdx
	movq	%rdx, (%rax)
	movq	-16(%rbp), %rax
	movl	$1024, %esi
	movq	%rax, %rdi
	call	_Z16abs_StringLengthPKcj
	movl	%eax, %edx
	movq	-8(%rbp), %rax
	movl	%edx, 8(%rax)
.LBE6:
	nop
	leave
	.cfi_def_cfa 7, 8
	ret
	.cfi_endproc
.LFE16:
	.size	_ZN13abs_stringptrC2EPKc, .-_ZN13abs_stringptrC2EPKc
	.weak	_ZN13abs_stringptrC1EPKc
	.set	_ZN13abs_stringptrC1EPKc,_ZN13abs_stringptrC2EPKc
	.section	.text._ZN13abs_stringptrC2EPc,"axG",@progbits,_ZN13abs_stringptrC5EPc,comdat
	.align 2
	.weak	_ZN13abs_stringptrC2EPc
	.type	_ZN13abs_stringptrC2EPc, @function
_ZN13abs_stringptrC2EPc:
.LFB19:
	.loc 3 18 0
	.cfi_startproc
	pushq	%rbp
	.cfi_def_cfa_offset 16
	.cfi_offset 6, -16
	movq	%rsp, %rbp
	.cfi_def_cfa_register 6
	subq	$16, %rsp
	movq	%rdi, -8(%rbp)
	movq	%rsi, -16(%rbp)
.LBB7:
	.loc 3 18 0
	movq	-8(%rbp), %rax
	movq	-16(%rbp), %rdx
	movq	%rdx, (%rax)
	movq	-16(%rbp), %rax
	movl	$1024, %esi
	movq	%rax, %rdi
	call	_Z16abs_StringLengthPKcj
	movl	%eax, %edx
	movq	-8(%rbp), %rax
	movl	%edx, 8(%rax)
.LBE7:
	nop
	leave
	.cfi_def_cfa 7, 8
	ret
	.cfi_endproc
.LFE19:
	.size	_ZN13abs_stringptrC2EPc, .-_ZN13abs_stringptrC2EPc
	.weak	_ZN13abs_stringptrC1EPc
	.set	_ZN13abs_stringptrC1EPc,_ZN13abs_stringptrC2EPc
	.section	.text._ZNK13abs_stringptrcvPKcEv,"axG",@progbits,_ZNK13abs_stringptrcvPKcEv,comdat
	.align 2
	.weak	_ZNK13abs_stringptrcvPKcEv
	.type	_ZNK13abs_stringptrcvPKcEv, @function
_ZNK13abs_stringptrcvPKcEv:
.LFB24:
	.loc 3 20 0
	.cfi_startproc
	pushq	%rbp
	.cfi_def_cfa_offset 16
	.cfi_offset 6, -16
	movq	%rsp, %rbp
	.cfi_def_cfa_register 6
	movq	%rdi, -8(%rbp)
	.loc 3 20 0
	movq	-8(%rbp), %rax
	movq	(%rax), %rax
	popq	%rbp
	.cfi_def_cfa 7, 8
	ret
	.cfi_endproc
.LFE24:
	.size	_ZNK13abs_stringptrcvPKcEv, .-_ZNK13abs_stringptrcvPKcEv
	.text
	.globl	_Z27abs_AreStringFragmentsEqualPKcS0_ja
	.type	_Z27abs_AreStringFragmentsEqualPKcS0_ja, @function
_Z27abs_AreStringFragmentsEqualPKcS0_ja:
.LFB25:
	.loc 3 48 0
	.cfi_startproc
	pushq	%rbp
	.cfi_def_cfa_offset 16
	.cfi_offset 6, -16
	movq	%rsp, %rbp
	.cfi_def_cfa_register 6
	movq	%rdi, -40(%rbp)
	movq	%rsi, -48(%rbp)
	movl	%edx, -52(%rbp)
	movl	%ecx, %eax
	movb	%al, -56(%rbp)
	.loc 3 49 0
	movb	$0, -23(%rbp)
	.loc 3 50 0
	movq	-40(%rbp), %rax
	movq	%rax, -16(%rbp)
	.loc 3 51 0
	movq	-48(%rbp), %rax
	movq	%rax, -8(%rbp)
	.loc 3 52 0
	movl	$0, -20(%rbp)
.L33:
	.loc 3 54 0
	movq	-16(%rbp), %rax
	movzbl	(%rax), %eax
	testb	%al, %al
	je	.L28
	.loc 3 54 0 is_stmt 0 discriminator 1
	movq	-8(%rbp), %rax
	movzbl	(%rax), %eax
	testb	%al, %al
	je	.L28
	.loc 3 54 0 discriminator 2
	movl	-20(%rbp), %eax
	cmpl	-52(%rbp), %eax
	jnb	.L28
.LBB8:
	.loc 3 57 0 is_stmt 1
	movq	-16(%rbp), %rax
	movzbl	(%rax), %eax
	movb	%al, -22(%rbp)
	.loc 3 58 0
	movq	-8(%rbp), %rax
	movzbl	(%rax), %eax
	movb	%al, -21(%rbp)
	.loc 3 59 0
	cmpb	$0, -56(%rbp)
	je	.L29
	.loc 3 61 0
	cmpb	$96, -22(%rbp)
	jle	.L30
	.loc 3 61 0 is_stmt 0 discriminator 1
	cmpb	$122, -22(%rbp)
	jg	.L30
	.loc 3 64 0 is_stmt 1
	movzbl	-22(%rbp), %eax
	subl	$32, %eax
	movb	%al, -22(%rbp)
.L30:
	.loc 3 66 0
	cmpb	$96, -21(%rbp)
	jle	.L29
	.loc 3 66 0 is_stmt 0 discriminator 1
	cmpb	$122, -21(%rbp)
	jg	.L29
	.loc 3 69 0 is_stmt 1
	movzbl	-21(%rbp), %eax
	subl	$32, %eax
	movb	%al, -21(%rbp)
.L29:
	.loc 3 72 0
	movzbl	-22(%rbp), %eax
	cmpb	-21(%rbp), %al
	jne	.L31
	.loc 3 74 0
	movb	$1, -23(%rbp)
	.loc 3 75 0
	addq	$1, -16(%rbp)
	.loc 3 76 0
	addq	$1, -8(%rbp)
	jmp	.L37
.L31:
	.loc 3 80 0
	movb	$0, -23(%rbp)
	.loc 3 81 0
	jmp	.L28
.L37:
	.loc 3 84 0
	addl	$1, -20(%rbp)
.LBE8:
	.loc 3 54 0
	jmp	.L33
.L28:
	.loc 3 87 0
	cmpb	$0, -23(%rbp)
	je	.L34
	.loc 3 87 0 is_stmt 0 discriminator 1
	movl	-20(%rbp), %eax
	cmpl	-52(%rbp), %eax
	jne	.L34
	.loc 3 87 0 discriminator 3
	movl	$1, %eax
	jmp	.L35
.L34:
	.loc 3 87 0 discriminator 4
	movl	$0, %eax
.L35:
	.loc 3 89 0 is_stmt 1 discriminator 6
	popq	%rbp
	.cfi_def_cfa 7, 8
	ret
	.cfi_endproc
.LFE25:
	.size	_Z27abs_AreStringFragmentsEqualPKcS0_ja, .-_Z27abs_AreStringFragmentsEqualPKcS0_ja
	.globl	_Z19abs_AreStringsEqualPKcjS0_ja
	.type	_Z19abs_AreStringsEqualPKcjS0_ja, @function
_Z19abs_AreStringsEqualPKcjS0_ja:
.LFB26:
	.loc 3 93 0
	.cfi_startproc
	pushq	%rbp
	.cfi_def_cfa_offset 16
	.cfi_offset 6, -16
	movq	%rsp, %rbp
	.cfi_def_cfa_register 6
	subq	$48, %rsp
	movq	%rdi, -24(%rbp)
	movl	%esi, -28(%rbp)
	movq	%rdx, -40(%rbp)
	movl	%ecx, -32(%rbp)
	movl	%r8d, %eax
	movb	%al, -44(%rbp)
	.loc 3 94 0
	movb	$0, -1(%rbp)
	.loc 3 95 0
	movl	-28(%rbp), %eax
	cmpl	-32(%rbp), %eax
	jne	.L39
	.loc 3 97 0
	movsbl	-44(%rbp), %ecx
	movl	-28(%rbp), %edx
	movq	-40(%rbp), %rsi
	movq	-24(%rbp), %rax
	movq	%rax, %rdi
	call	_Z27abs_AreStringFragmentsEqualPKcS0_ja
	movb	%al, -1(%rbp)
.L39:
	.loc 3 101 0
	movzbl	-1(%rbp), %eax
	.loc 3 102 0
	leave
	.cfi_def_cfa 7, 8
	ret
	.cfi_endproc
.LFE26:
	.size	_Z19abs_AreStringsEqualPKcjS0_ja, .-_Z19abs_AreStringsEqualPKcjS0_ja
	.globl	_Z19abs_AreStringsEqualPKcjS0_j
	.type	_Z19abs_AreStringsEqualPKcjS0_j, @function
_Z19abs_AreStringsEqualPKcjS0_j:
.LFB27:
	.loc 3 106 0
	.cfi_startproc
	pushq	%rbp
	.cfi_def_cfa_offset 16
	.cfi_offset 6, -16
	movq	%rsp, %rbp
	.cfi_def_cfa_register 6
	subq	$24, %rsp
	movq	%rdi, -8(%rbp)
	movl	%esi, -12(%rbp)
	movq	%rdx, -24(%rbp)
	movl	%ecx, -16(%rbp)
	.loc 3 107 0
	movl	-16(%rbp), %ecx
	movq	-24(%rbp), %rdx
	movl	-12(%rbp), %esi
	movq	-8(%rbp), %rax
	movl	$1, %r8d
	movq	%rax, %rdi
	call	_Z19abs_AreStringsEqualPKcjS0_ja
	.loc 3 108 0
	leave
	.cfi_def_cfa 7, 8
	ret
	.cfi_endproc
.LFE27:
	.size	_Z19abs_AreStringsEqualPKcjS0_j, .-_Z19abs_AreStringsEqualPKcjS0_j
	.globl	_Z19abs_AreStringsEqual13abs_stringptrS_a
	.type	_Z19abs_AreStringsEqual13abs_stringptrS_a, @function
_Z19abs_AreStringsEqual13abs_stringptrS_a:
.LFB28:
	.loc 3 112 0
	.cfi_startproc
	pushq	%rbp
	.cfi_def_cfa_offset 16
	.cfi_offset 6, -16
	movq	%rsp, %rbp
	.cfi_def_cfa_register 6
	subq	$48, %rsp
	movq	%rdi, %rax
	movq	%rsi, %r9
	movq	%rax, %rsi
	movq	%rdx, %rdi
	movq	%r9, %rdi
	movq	%rsi, -16(%rbp)
	movq	%rdi, -8(%rbp)
	movq	%rdx, -32(%rbp)
	movq	%rcx, -24(%rbp)
	movl	%r8d, %eax
	movb	%al, -36(%rbp)
	.loc 3 113 0
	movsbl	-36(%rbp), %edi
	movl	-24(%rbp), %ecx
	movq	-32(%rbp), %rdx
	movl	-8(%rbp), %esi
	movq	-16(%rbp), %rax
	movl	%edi, %r8d
	movq	%rax, %rdi
	call	_Z19abs_AreStringsEqualPKcjS0_ja
	.loc 3 114 0
	leave
	.cfi_def_cfa 7, 8
	ret
	.cfi_endproc
.LFE28:
	.size	_Z19abs_AreStringsEqual13abs_stringptrS_a, .-_Z19abs_AreStringsEqual13abs_stringptrS_a
	.globl	_Z19abs_AreStringsEqual13abs_stringptrS_
	.type	_Z19abs_AreStringsEqual13abs_stringptrS_, @function
_Z19abs_AreStringsEqual13abs_stringptrS_:
.LFB29:
	.loc 3 118 0
	.cfi_startproc
	pushq	%rbp
	.cfi_def_cfa_offset 16
	.cfi_offset 6, -16
	movq	%rsp, %rbp
	.cfi_def_cfa_register 6
	subq	$32, %rsp
	movq	%rdi, %rax
	movq	%rsi, %r8
	movq	%rax, %rsi
	movq	%rdx, %rdi
	movq	%r8, %rdi
	movq	%rsi, -16(%rbp)
	movq	%rdi, -8(%rbp)
	movq	%rdx, -32(%rbp)
	movq	%rcx, -24(%rbp)
	.loc 3 119 0
	movl	-24(%rbp), %ecx
	movq	-32(%rbp), %rdx
	movl	-8(%rbp), %esi
	movq	-16(%rbp), %rax
	movl	$0, %r8d
	movq	%rax, %rdi
	call	_Z19abs_AreStringsEqualPKcjS0_ja
	.loc 3 120 0
	leave
	.cfi_def_cfa 7, 8
	ret
	.cfi_endproc
.LFE29:
	.size	_Z19abs_AreStringsEqual13abs_stringptrS_, .-_Z19abs_AreStringsEqual13abs_stringptrS_
	.globl	_Z19abs_AreStringsEqualPKcj13abs_stringptr
	.type	_Z19abs_AreStringsEqualPKcj13abs_stringptr, @function
_Z19abs_AreStringsEqualPKcj13abs_stringptr:
.LFB30:
	.loc 3 124 0
	.cfi_startproc
	pushq	%rbp
	.cfi_def_cfa_offset 16
	.cfi_offset 6, -16
	movq	%rsp, %rbp
	.cfi_def_cfa_register 6
	subq	$32, %rsp
	movq	%rdi, -8(%rbp)
	movl	%esi, -12(%rbp)
	movq	%rdx, -32(%rbp)
	movq	%rcx, -24(%rbp)
	.loc 3 125 0
	movl	-24(%rbp), %ecx
	movq	-32(%rbp), %rdx
	movl	-12(%rbp), %esi
	movq	-8(%rbp), %rax
	movl	$1, %r8d
	movq	%rax, %rdi
	call	_Z19abs_AreStringsEqualPKcjS0_ja
	.loc 3 126 0
	leave
	.cfi_def_cfa 7, 8
	ret
	.cfi_endproc
.LFE30:
	.size	_Z19abs_AreStringsEqualPKcj13abs_stringptr, .-_Z19abs_AreStringsEqualPKcj13abs_stringptr
	.globl	_Z16abs_StringLengthPKcj
	.type	_Z16abs_StringLengthPKcj, @function
_Z16abs_StringLengthPKcj:
.LFB31:
	.loc 3 130 0
	.cfi_startproc
	pushq	%rbp
	.cfi_def_cfa_offset 16
	.cfi_offset 6, -16
	movq	%rsp, %rbp
	.cfi_def_cfa_register 6
	movq	%rdi, -24(%rbp)
	movl	%esi, -28(%rbp)
	.loc 3 131 0
	movq	-24(%rbp), %rax
	movq	%rax, -8(%rbp)
	.loc 3 132 0
	movl	$0, -12(%rbp)
.L53:
	.loc 3 133 0
	movl	-12(%rbp), %eax
	cmpl	-28(%rbp), %eax
	jnb	.L50
	.loc 3 135 0
	movq	-8(%rbp), %rax
	leaq	1(%rax), %rdx
	movq	%rdx, -8(%rbp)
	movzbl	(%rax), %eax
	testb	%al, %al
	setne	%al
	testb	%al, %al
	je	.L55
	.loc 3 135 0 is_stmt 0 discriminator 1
	addl	$1, -12(%rbp)
	.loc 3 133 0 is_stmt 1 discriminator 1
	jmp	.L53
.L55:
	.loc 3 136 0
	nop
.L50:
	.loc 3 139 0
	movl	-12(%rbp), %eax
	.loc 3 140 0
	popq	%rbp
	.cfi_def_cfa 7, 8
	ret
	.cfi_endproc
.LFE31:
	.size	_Z16abs_StringLengthPKcj, .-_Z16abs_StringLengthPKcj
	.globl	_Z14abs_FindInList13abs_stringptrjPKS_a
	.type	_Z14abs_FindInList13abs_stringptrjPKS_a, @function
_Z14abs_FindInList13abs_stringptrjPKS_a:
.LFB32:
	.loc 3 144 0
	.cfi_startproc
	pushq	%rbp
	.cfi_def_cfa_offset 16
	.cfi_offset 6, -16
	movq	%rsp, %rbp
	.cfi_def_cfa_register 6
	subq	$48, %rsp
	movq	%rdi, %rax
	movq	%rsi, %r9
	movq	%rax, %rsi
	movq	%rdx, %rdi
	movq	%r9, %rdi
	movq	%rsi, -32(%rbp)
	movq	%rdi, -24(%rbp)
	movl	%edx, -36(%rbp)
	movq	%rcx, -48(%rbp)
	movl	%r8d, %eax
	movb	%al, -40(%rbp)
	.loc 3 145 0
	movl	-36(%rbp), %eax
	movl	%eax, -8(%rbp)
.LBB9:
	.loc 3 147 0
	movl	$0, -4(%rbp)
.L59:
	.loc 3 148 0
	movl	-4(%rbp), %eax
	cmpl	-36(%rbp), %eax
	jnb	.L57
	.loc 3 151 0
	movsbl	-40(%rbp), %edi
	movl	-4(%rbp), %eax
	salq	$4, %rax
	movq	%rax, %rdx
	movq	-48(%rbp), %rax
	addq	%rdx, %rax
	movl	8(%rax), %ecx
	movl	-4(%rbp), %eax
	salq	$4, %rax
	movq	%rax, %rdx
	movq	-48(%rbp), %rax
	addq	%rdx, %rax
	movq	(%rax), %rdx
	movl	-24(%rbp), %esi
	movq	-32(%rbp), %rax
	movl	%edi, %r8d
	movq	%rax, %rdi
	call	_Z19abs_AreStringsEqualPKcjS0_ja
	testb	%al, %al
	setne	%al
	testb	%al, %al
	je	.L58
	.loc 3 153 0
	movl	-4(%rbp), %eax
	movl	%eax, -8(%rbp)
	.loc 3 154 0
	jmp	.L57
.L58:
	.loc 3 147 0
	addl	$1, -4(%rbp)
	jmp	.L59
.L57:
.LBE9:
	.loc 3 158 0
	movl	-8(%rbp), %eax
	.loc 3 159 0
	leave
	.cfi_def_cfa 7, 8
	ret
	.cfi_endproc
.LFE32:
	.size	_Z14abs_FindInList13abs_stringptrjPKS_a, .-_Z14abs_FindInList13abs_stringptrjPKS_a
	.globl	_Z14abs_FindInListPKcjPK13abs_stringptra
	.type	_Z14abs_FindInListPKcjPK13abs_stringptra, @function
_Z14abs_FindInListPKcjPK13abs_stringptra:
.LFB33:
	.loc 3 163 0
	.cfi_startproc
	pushq	%rbp
	.cfi_def_cfa_offset 16
	.cfi_offset 6, -16
	movq	%rsp, %rbp
	.cfi_def_cfa_register 6
	pushq	%r12
	pushq	%rbx
	subq	$48, %rsp
	.cfi_offset 12, -24
	.cfi_offset 3, -32
	movq	%rdi, -40(%rbp)
	movl	%esi, -44(%rbp)
	movq	%rdx, -56(%rbp)
	movl	%ecx, %eax
	movb	%al, -48(%rbp)
	.loc 3 164 0
	movl	-44(%rbp), %eax
	movl	%eax, -28(%rbp)
	.loc 3 165 0
	movq	-40(%rbp), %rax
	movq	%rax, %rdi
	call	strlen@PLT
	movl	%eax, -20(%rbp)
.LBB10:
	.loc 3 167 0
	movl	$0, -24(%rbp)
.L64:
	.loc 3 168 0
	movl	-24(%rbp), %eax
	cmpl	-44(%rbp), %eax
	jnb	.L62
	.loc 3 171 0
	movsbl	-48(%rbp), %ebx
	movl	-24(%rbp), %eax
	salq	$4, %rax
	movq	%rax, %rdx
	movq	-56(%rbp), %rax
	addq	%rdx, %rax
	movq	%rax, %rdi
	call	_ZNK13abs_stringptrcvPKcEv
	movq	%rax, %rdi
	call	strlen@PLT
	movl	%eax, %r12d
	movl	-24(%rbp), %eax
	salq	$4, %rax
	movq	%rax, %rdx
	movq	-56(%rbp), %rax
	addq	%rdx, %rax
	movq	%rax, %rdi
	call	_ZNK13abs_stringptrcvPKcEv
	movq	%rax, %rdx
	movl	-20(%rbp), %esi
	movq	-40(%rbp), %rax
	movl	%ebx, %r8d
	movl	%r12d, %ecx
	movq	%rax, %rdi
	call	_Z19abs_AreStringsEqualPKcjS0_ja
	testb	%al, %al
	setne	%al
	testb	%al, %al
	je	.L63
	.loc 3 173 0
	movl	-24(%rbp), %eax
	movl	%eax, -28(%rbp)
	.loc 3 174 0
	jmp	.L62
.L63:
	.loc 3 167 0
	addl	$1, -24(%rbp)
	jmp	.L64
.L62:
.LBE10:
	.loc 3 178 0
	movl	-28(%rbp), %eax
	.loc 3 179 0
	addq	$48, %rsp
	popq	%rbx
	popq	%r12
	popq	%rbp
	.cfi_def_cfa 7, 8
	ret
	.cfi_endproc
.LFE33:
	.size	_Z14abs_FindInListPKcjPK13abs_stringptra, .-_Z14abs_FindInListPKcjPK13abs_stringptra
	.globl	_Z14abs_StringCopyPcPKcm
	.type	_Z14abs_StringCopyPcPKcm, @function
_Z14abs_StringCopyPcPKcm:
.LFB34:
	.loc 3 182 0
	.cfi_startproc
	pushq	%rbp
	.cfi_def_cfa_offset 16
	.cfi_offset 6, -16
	movq	%rsp, %rbp
	.cfi_def_cfa_register 6
	subq	$32, %rsp
	movq	%rdi, -8(%rbp)
	movq	%rsi, -16(%rbp)
	movq	%rdx, -24(%rbp)
	.loc 3 183 0
	movq	-24(%rbp), %rdx
	movq	-16(%rbp), %rcx
	movq	-8(%rbp), %rax
	movq	%rcx, %rsi
	movq	%rax, %rdi
	call	strncpy@PLT
	.loc 3 184 0
	leave
	.cfi_def_cfa 7, 8
	ret
	.cfi_endproc
.LFE34:
	.size	_Z14abs_StringCopyPcPKcm, .-_Z14abs_StringCopyPcPKcm
	.globl	_Z19abs_CreateStringPtrP12memory_arenaPKc
	.type	_Z19abs_CreateStringPtrP12memory_arenaPKc, @function
_Z19abs_CreateStringPtrP12memory_arenaPKc:
.LFB35:
	.loc 3 188 0
	.cfi_startproc
	pushq	%rbp
	.cfi_def_cfa_offset 16
	.cfi_offset 6, -16
	movq	%rsp, %rbp
	.cfi_def_cfa_register 6
	subq	$64, %rsp
	movq	%rdi, -56(%rbp)
	movq	%rsi, -64(%rbp)
	.loc 3 188 0
	movq	%fs:40, %rax
	movq	%rax, -8(%rbp)
	xorl	%eax, %eax
	.loc 3 189 0
	movq	-56(%rbp), %rax
	movq	%rax, %rdi
	call	_Z17abm_GetMemoryLeftP12memory_arena
	leal	-1(%rax), %edx
	movq	-64(%rbp), %rax
	movl	%edx, %esi
	movq	%rax, %rdi
	call	_Z16abs_StringLengthPKcj
	movl	%eax, -44(%rbp)
	.loc 3 190 0
	movl	-44(%rbp), %eax
	addl	$1, %eax
	movl	%eax, %ecx
	movq	-56(%rbp), %rax
	movl	$1, %edx
	movq	%rcx, %rsi
	movq	%rax, %rdi
	call	_Z13abm_PushSize_P12memory_arenama
	movq	%rax, -40(%rbp)
	.loc 3 192 0
	movl	-44(%rbp), %eax
	addl	$1, %eax
	movl	%eax, %edx
	movq	-64(%rbp), %rcx
	movq	-40(%rbp), %rax
	movq	%rcx, %rsi
	movq	%rax, %rdi
	call	_Z14abs_StringCopyPcPKcm
	.loc 3 193 0
	movl	-44(%rbp), %edx
	movq	-40(%rbp), %rcx
	leaq	-32(%rbp), %rax
	movq	%rcx, %rsi
	movq	%rax, %rdi
	call	_ZN13abs_stringptrC1EPKcj
	.loc 3 195 0
	movq	-32(%rbp), %rax
	movq	-24(%rbp), %rdx
	.loc 3 196 0
	movq	-8(%rbp), %rsi
	xorq	%fs:40, %rsi
	je	.L70
	call	__stack_chk_fail@PLT
.L70:
	leave
	.cfi_def_cfa 7, 8
	ret
	.cfi_endproc
.LFE35:
	.size	_Z19abs_CreateStringPtrP12memory_arenaPKc, .-_Z19abs_CreateStringPtrP12memory_arenaPKc
	.globl	_Z14abs_Capitalize13abs_stringptrP12memory_arena
	.type	_Z14abs_Capitalize13abs_stringptrP12memory_arena, @function
_Z14abs_Capitalize13abs_stringptrP12memory_arena:
.LFB36:
	.loc 3 200 0
	.cfi_startproc
	pushq	%rbp
	.cfi_def_cfa_offset 16
	.cfi_offset 6, -16
	movq	%rsp, %rbp
	.cfi_def_cfa_register 6
	pushq	%rbx
	subq	$88, %rsp
	.cfi_offset 3, -24
	movq	%rdi, %rax
	movq	%rax, %rcx
	movq	%rdx, %rbx
	movq	%rsi, %rbx
	movq	%rcx, -80(%rbp)
	movq	%rbx, -72(%rbp)
	movq	%rdx, -88(%rbp)
	.loc 3 200 0
	movq	%fs:40, %rax
	movq	%rax, -24(%rbp)
	xorl	%eax, %eax
	.loc 3 201 0
	movl	-72(%rbp), %eax
	movl	%eax, %ecx
	movq	-88(%rbp), %rax
	movl	$1, %edx
	movq	%rcx, %rsi
	movq	%rax, %rdi
	call	_Z13abm_PushSize_P12memory_arenama
	movq	%rax, -56(%rbp)
.LBB11:
	.loc 3 202 0
	movl	$0, -60(%rbp)
.L75:
	.loc 3 202 0 is_stmt 0 discriminator 1
	movl	-72(%rbp), %eax
	cmpl	%eax, -60(%rbp)
	jnb	.L72
	.loc 3 204 0 is_stmt 1
	movq	-80(%rbp), %rdx
	movl	-60(%rbp), %eax
	addq	%rdx, %rax
	movzbl	(%rax), %eax
	cmpb	$96, %al
	jle	.L73
	.loc 3 204 0 is_stmt 0 discriminator 1
	movq	-80(%rbp), %rdx
	movl	-60(%rbp), %eax
	addq	%rdx, %rax
	movzbl	(%rax), %eax
	cmpb	$122, %al
	jg	.L73
	.loc 3 206 0 is_stmt 1
	movq	-80(%rbp), %rdx
	movl	-60(%rbp), %eax
	addq	%rdx, %rax
	movzbl	(%rax), %eax
	leal	-32(%rax), %ecx
	movl	-60(%rbp), %edx
	movq	-56(%rbp), %rax
	addq	%rdx, %rax
	movl	%ecx, %edx
	movb	%dl, (%rax)
	jmp	.L74
.L73:
	.loc 3 210 0
	movq	-80(%rbp), %rdx
	movl	-60(%rbp), %eax
	addq	%rdx, %rax
	movl	-60(%rbp), %ecx
	movq	-56(%rbp), %rdx
	addq	%rcx, %rdx
	movzbl	(%rax), %eax
	movb	%al, (%rdx)
.L74:
	.loc 3 202 0 discriminator 2
	addl	$1, -60(%rbp)
	jmp	.L75
.L72:
.LBE11:
	.loc 3 213 0
	movl	-72(%rbp), %edx
	movq	-56(%rbp), %rcx
	leaq	-48(%rbp), %rax
	movq	%rcx, %rsi
	movq	%rax, %rdi
	call	_ZN13abs_stringptrC1EPKcj
	.loc 3 215 0
	movq	-48(%rbp), %rax
	movq	-40(%rbp), %rdx
	.loc 3 217 0
	movq	-24(%rbp), %rbx
	xorq	%fs:40, %rbx
	je	.L77
	call	__stack_chk_fail@PLT
.L77:
	addq	$88, %rsp
	popq	%rbx
	popq	%rbp
	.cfi_def_cfa 7, 8
	ret
	.cfi_endproc
.LFE36:
	.size	_Z14abs_Capitalize13abs_stringptrP12memory_arena, .-_Z14abs_Capitalize13abs_stringptrP12memory_arena
	.globl	_Z13abs_Lowercase13abs_stringptrP12memory_arena
	.type	_Z13abs_Lowercase13abs_stringptrP12memory_arena, @function
_Z13abs_Lowercase13abs_stringptrP12memory_arena:
.LFB37:
	.loc 3 221 0
	.cfi_startproc
	pushq	%rbp
	.cfi_def_cfa_offset 16
	.cfi_offset 6, -16
	movq	%rsp, %rbp
	.cfi_def_cfa_register 6
	pushq	%rbx
	subq	$88, %rsp
	.cfi_offset 3, -24
	movq	%rdi, %rax
	movq	%rax, %rcx
	movq	%rdx, %rbx
	movq	%rsi, %rbx
	movq	%rcx, -80(%rbp)
	movq	%rbx, -72(%rbp)
	movq	%rdx, -88(%rbp)
	.loc 3 221 0
	movq	%fs:40, %rax
	movq	%rax, -24(%rbp)
	xorl	%eax, %eax
	.loc 3 222 0
	movl	-72(%rbp), %eax
	movl	%eax, %ecx
	movq	-88(%rbp), %rax
	movl	$1, %edx
	movq	%rcx, %rsi
	movq	%rax, %rdi
	call	_Z13abm_PushSize_P12memory_arenama
	movq	%rax, -56(%rbp)
.LBB12:
	.loc 3 223 0
	movl	$0, -60(%rbp)
.L82:
	.loc 3 223 0 is_stmt 0 discriminator 1
	movl	-72(%rbp), %eax
	cmpl	%eax, -60(%rbp)
	jnb	.L79
	.loc 3 225 0 is_stmt 1
	movq	-80(%rbp), %rdx
	movl	-60(%rbp), %eax
	addq	%rdx, %rax
	movzbl	(%rax), %eax
	cmpb	$64, %al
	jle	.L80
	.loc 3 225 0 is_stmt 0 discriminator 1
	movq	-80(%rbp), %rdx
	movl	-60(%rbp), %eax
	addq	%rdx, %rax
	movzbl	(%rax), %eax
	cmpb	$90, %al
	jg	.L80
	.loc 3 227 0 is_stmt 1
	movq	-80(%rbp), %rdx
	movl	-60(%rbp), %eax
	addq	%rdx, %rax
	movzbl	(%rax), %eax
	leal	32(%rax), %ecx
	movl	-60(%rbp), %edx
	movq	-56(%rbp), %rax
	addq	%rdx, %rax
	movl	%ecx, %edx
	movb	%dl, (%rax)
	jmp	.L81
.L80:
	.loc 3 231 0
	movq	-80(%rbp), %rdx
	movl	-60(%rbp), %eax
	addq	%rdx, %rax
	movl	-60(%rbp), %ecx
	movq	-56(%rbp), %rdx
	addq	%rcx, %rdx
	movzbl	(%rax), %eax
	movb	%al, (%rdx)
.L81:
	.loc 3 223 0 discriminator 2
	addl	$1, -60(%rbp)
	jmp	.L82
.L79:
.LBE12:
	.loc 3 234 0
	movl	-72(%rbp), %edx
	movq	-56(%rbp), %rcx
	leaq	-48(%rbp), %rax
	movq	%rcx, %rsi
	movq	%rax, %rdi
	call	_ZN13abs_stringptrC1EPKcj
	.loc 3 236 0
	movq	-48(%rbp), %rax
	movq	-40(%rbp), %rdx
	.loc 3 238 0
	movq	-24(%rbp), %rbx
	xorq	%fs:40, %rbx
	je	.L84
	call	__stack_chk_fail@PLT
.L84:
	addq	$88, %rsp
	popq	%rbx
	popq	%rbp
	.cfi_def_cfa 7, 8
	ret
	.cfi_endproc
.LFE37:
	.size	_Z13abs_Lowercase13abs_stringptrP12memory_arena, .-_Z13abs_Lowercase13abs_stringptrP12memory_arena
	.section	.rodata
.LC0:
	.string	"%s/*.c*"
.LC1:
	.string	"%s/*.h*"
	.text
	.globl	_Z22abf_InitializeFileListP12memory_arenaPKc
	.type	_Z22abf_InitializeFileListP12memory_arenaPKc, @function
_Z22abf_InitializeFileListP12memory_arenaPKc:
.LFB43:
	.file 4 "/home/amos/prog/c/amos_libraries/preprocessor/../include/ab_file_linux.h"
	.loc 4 28 0
	.cfi_startproc
	pushq	%rbp
	.cfi_def_cfa_offset 16
	.cfi_offset 6, -16
	movq	%rsp, %rbp
	.cfi_def_cfa_register 6
	subq	$336, %rsp
	movq	%rdi, -328(%rbp)
	movq	%rsi, -336(%rbp)
	.loc 4 28 0
	movq	%fs:40, %rax
	movq	%rax, -8(%rbp)
	xorl	%eax, %eax
	.loc 4 29 0
	movq	-328(%rbp), %rax
	movl	$1, %edx
	movl	$352, %esi
	movq	%rax, %rdi
	call	_Z13abm_PushSize_P12memory_arenama
	movq	%rax, -296(%rbp)
	.loc 4 31 0
	movl	$265, -308(%rbp)
	.loc 4 33 0
	movq	-336(%rbp), %rdx
	leaq	-288(%rbp), %rax
	movq	%rdx, %rcx
	leaq	.LC0(%rip), %rdx
	movl	$265, %esi
	movq	%rax, %rdi
	movl	$0, %eax
	call	stbsp_snprintf
	.loc 4 34 0
	movq	-296(%rbp), %rdx
	leaq	-288(%rbp), %rax
	movq	%rdx, %rcx
	movl	$0, %edx
	movl	$0, %esi
	movq	%rax, %rdi
	call	glob@PLT
	movl	%eax, -304(%rbp)
	.loc 4 36 0
	movq	-336(%rbp), %rdx
	leaq	-288(%rbp), %rax
	movq	%rdx, %rcx
	leaq	.LC1(%rip), %rdx
	movl	$265, %esi
	movq	%rax, %rdi
	movl	$0, %eax
	call	stbsp_snprintf
	.loc 4 37 0
	movq	-296(%rbp), %rdx
	.loc 4 37 0
	leaq	-288(%rbp), %rax
	movq	%rdx, %rcx
	movl	$0, %edx
	movl	$32, %esi
	movq	%rax, %rdi
	call	glob@PLT
	movl	%eax, -300(%rbp)
	.loc 4 40 0
	cmpl	$0, -304(%rbp)
	je	.L86
	.loc 4 40 0 is_stmt 0 discriminator 1
	cmpl	$0, -300(%rbp)
	jne	.L87
.L86:
	.loc 4 42 0 is_stmt 1
	movq	-296(%rbp), %rax
	movq	(%rax), %rdx
	movq	-296(%rbp), %rax
	movq	%rdx, 72(%rax)
	jmp	.L88
.L87:
	.loc 4 46 0
	movq	-296(%rbp), %rax
	movq	$0, 72(%rax)
.L88:
	.loc 4 49 0
	movq	-296(%rbp), %rax
	movl	$0, 80(%rax)
	.loc 4 50 0
	movq	-296(%rbp), %rax
	.loc 4 51 0
	movq	-8(%rbp), %rcx
	xorq	%fs:40, %rcx
	je	.L90
	call	__stack_chk_fail@PLT
.L90:
	leave
	.cfi_def_cfa 7, 8
	ret
	.cfi_endproc
.LFE43:
	.size	_Z22abf_InitializeFileListP12memory_arenaPKc, .-_Z22abf_InitializeFileListP12memory_arenaPKc
	.globl	_Z15abf_GetNextFileP9file_listP9file_data
	.type	_Z15abf_GetNextFileP9file_listP9file_data, @function
_Z15abf_GetNextFileP9file_listP9file_data:
.LFB44:
	.loc 4 55 0
	.cfi_startproc
	pushq	%rbp
	.cfi_def_cfa_offset 16
	.cfi_offset 6, -16
	movq	%rsp, %rbp
	.cfi_def_cfa_register 6
	subq	$208, %rsp
	movq	%rdi, -200(%rbp)
	movq	%rsi, -208(%rbp)
	.loc 4 55 0
	movq	%fs:40, %rax
	movq	%rax, -8(%rbp)
	xorl	%eax, %eax
	.loc 4 56 0
	movb	$0, -189(%rbp)
	.loc 4 58 0
	movq	-200(%rbp), %rax
	movq	88(%rax), %rax
	testq	%rax, %rax
	je	.L92
	.loc 4 60 0
	movq	-200(%rbp), %rax
	movq	88(%rax), %rax
	movq	64(%rax), %rax
	testq	%rax, %rax
	je	.L92
	.loc 4 62 0
	movq	-200(%rbp), %rax
	movq	88(%rax), %rax
	movq	64(%rax), %rax
	movq	%rax, %rdi
	call	free@PLT
	.loc 4 63 0
	movq	-200(%rbp), %rax
	movq	88(%rax), %rax
	movq	$0, 64(%rax)
.L92:
.LBB13:
	.loc 4 67 0
	movq	-200(%rbp), %rax
	movl	80(%rax), %eax
	movl	%eax, %edx
	movq	-200(%rbp), %rax
	movq	(%rax), %rax
	cmpq	%rax, %rdx
	jnb	.L93
.LBB14:
	.loc 4 70 0
	movq	-200(%rbp), %rax
	movq	8(%rax), %rdx
	movq	-200(%rbp), %rax
	movl	80(%rax), %eax
	movl	%eax, %eax
	salq	$3, %rax
	addq	%rdx, %rax
	movq	(%rax), %rax
	movq	%rax, -168(%rbp)
	.loc 4 71 0
	movq	-200(%rbp), %rax
	movl	80(%rax), %eax
	leal	1(%rax), %edx
	movq	-200(%rbp), %rax
	movl	%edx, 80(%rax)
	.loc 4 73 0
	movq	-168(%rbp), %rax
	movl	$0, %esi
	movq	%rax, %rdi
	movl	$0, %eax
	call	open@PLT
	movl	%eax, -184(%rbp)
.LBB15:
	.loc 4 74 0
	cmpl	$-1, -184(%rbp)
	je	.L101
.LBB16:
.LBB17:
	.loc 4 77 0
	leaq	-160(%rbp), %rdx
	movl	-184(%rbp), %eax
	movq	%rdx, %rsi
	movl	%eax, %edi
	call	fstat@PLT
	cmpl	$-1, %eax
	setne	%al
	testb	%al, %al
	je	.L95
.LBB18:
	.loc 4 79 0
	movq	-112(%rbp), %rax
	movq	%rax, %rdx
	movq	-208(%rbp), %rax
	movq	%rdx, (%rax)
	.loc 4 81 0
	movq	-208(%rbp), %rax
	movq	(%rax), %rax
	addq	$1, %rax
	movq	%rax, %rdi
	call	malloc@PLT
	movq	%rax, %rdx
	movq	-208(%rbp), %rax
	movq	%rdx, 64(%rax)
	.loc 4 82 0
	movq	-208(%rbp), %rax
	movq	64(%rax), %rdx
	movq	-208(%rbp), %rax
	movq	(%rax), %rax
	addq	%rdx, %rax
	movb	$0, (%rax)
.LBB19:
	.loc 4 83 0
	movq	-208(%rbp), %rax
	movq	64(%rax), %rax
	testq	%rax, %rax
	je	.L96
.LBB20:
	.loc 4 85 0
	movq	-208(%rbp), %rax
	movq	(%rax), %rax
	movl	%eax, -188(%rbp)
	.loc 4 86 0
	movq	-208(%rbp), %rax
	movq	64(%rax), %rax
	movq	%rax, -176(%rbp)
.L99:
	.loc 4 87 0
	cmpl	$0, -188(%rbp)
	je	.L97
.LBB21:
	.loc 4 89 0
	movl	-188(%rbp), %edx
	movq	-176(%rbp), %rcx
	movl	-184(%rbp), %eax
	movq	%rcx, %rsi
	movl	%eax, %edi
	call	read@PLT
	movl	%eax, -180(%rbp)
	.loc 4 90 0
	cmpl	$-1, -180(%rbp)
	jne	.L98
	.loc 4 92 0
	movq	-208(%rbp), %rax
	movq	64(%rax), %rax
	movq	%rax, %rdi
	call	free@PLT
	.loc 4 93 0
	movq	-208(%rbp), %rax
	movq	$0, 64(%rax)
	.loc 4 94 0
	movq	-208(%rbp), %rax
	movq	$0, (%rax)
	.loc 4 95 0
	movb	$0, -189(%rbp)
	.loc 4 96 0
	jmp	.L97
.L98:
	.loc 4 100 0
	movl	-180(%rbp), %eax
	subl	%eax, -188(%rbp)
	.loc 4 101 0
	movl	-180(%rbp), %eax
	cltq
	addq	%rax, -176(%rbp)
	.loc 4 102 0
	movb	$1, -189(%rbp)
.LBE21:
	.loc 4 87 0
	jmp	.L99
.L97:
	.loc 4 105 0
	movq	-200(%rbp), %rax
	movq	-208(%rbp), %rdx
	movq	%rdx, 88(%rax)
.LBE20:
	jmp	.L95
.L96:
	.loc 4 109 0
	movq	-208(%rbp), %rax
	movq	$0, (%rax)
	.loc 4 110 0
	movq	-200(%rbp), %rax
	movq	$0, 88(%rax)
.L95:
.LBE19:
.LBE18:
.LBE17:
	.loc 4 114 0
	movl	-184(%rbp), %eax
	movl	%eax, %edi
	call	close@PLT
.LBE16:
	jmp	.L101
.L93:
.LBE15:
.LBE14:
	.loc 4 119 0
	movq	-200(%rbp), %rax
	movq	$0, 88(%rax)
.L101:
.LBE13:
	.loc 4 123 0
	movzbl	-189(%rbp), %eax
	.loc 4 125 0
	movq	-8(%rbp), %rcx
	xorq	%fs:40, %rcx
	je	.L103
	call	__stack_chk_fail@PLT
.L103:
	leave
	.cfi_def_cfa 7, 8
	ret
	.cfi_endproc
.LFE44:
	.size	_Z15abf_GetNextFileP9file_listP9file_data, .-_Z15abf_GetNextFileP9file_listP9file_data
	.globl	_Z19abf_ReleaseFileListP9file_list
	.type	_Z19abf_ReleaseFileListP9file_list, @function
_Z19abf_ReleaseFileListP9file_list:
.LFB45:
	.loc 4 129 0
	.cfi_startproc
	pushq	%rbp
	.cfi_def_cfa_offset 16
	.cfi_offset 6, -16
	movq	%rsp, %rbp
	.cfi_def_cfa_register 6
	subq	$16, %rsp
	movq	%rdi, -8(%rbp)
	.loc 4 130 0
	cmpq	$0, -8(%rbp)
	je	.L107
	.loc 4 132 0
	movq	-8(%rbp), %rax
	movq	88(%rax), %rax
	testq	%rax, %rax
	je	.L106
	.loc 4 134 0
	movq	-8(%rbp), %rax
	movq	88(%rax), %rax
	movq	64(%rax), %rax
	testq	%rax, %rax
	je	.L106
	.loc 4 136 0
	movq	-8(%rbp), %rax
	movq	88(%rax), %rax
	movq	64(%rax), %rax
	movq	%rax, %rdi
	call	free@PLT
.L106:
	.loc 4 140 0
	movq	-8(%rbp), %rax
	movq	%rax, %rdi
	call	globfree@PLT
.L107:
	.loc 4 143 0
	nop
	leave
	.cfi_def_cfa 7, 8
	ret
	.cfi_endproc
.LFE45:
	.size	_Z19abf_ReleaseFileListP9file_list, .-_Z19abf_ReleaseFileListP9file_list
	.globl	_Z13abl_InitLexerP5lexerP9file_data
	.type	_Z13abl_InitLexerP5lexerP9file_data, @function
_Z13abl_InitLexerP5lexerP9file_data:
.LFB53:
	.file 5 "/home/amos/prog/c/amos_libraries/preprocessor/ab_lexer.h"
	.loc 5 77 0
	.cfi_startproc
	pushq	%rbp
	.cfi_def_cfa_offset 16
	.cfi_offset 6, -16
	movq	%rsp, %rbp
	.cfi_def_cfa_register 6
	movq	%rdi, -8(%rbp)
	movq	%rsi, -16(%rbp)
	.loc 5 78 0
	movq	-16(%rbp), %rax
	movq	64(%rax), %rdx
	movq	-8(%rbp), %rax
	movq	%rdx, (%rax)
	.loc 5 79 0
	movq	-8(%rbp), %rax
	movl	$0, 8(%rax)
	.loc 5 80 0
	movq	-8(%rbp), %rax
	movl	$0, 12(%rax)
	.loc 5 81 0
	nop
	popq	%rbp
	.cfi_def_cfa 7, 8
	ret
	.cfi_endproc
.LFE53:
	.size	_Z13abl_InitLexerP5lexerP9file_data, .-_Z13abl_InitLexerP5lexerP9file_data
	.globl	_Z14abl_TokenToS325token
	.type	_Z14abl_TokenToS325token, @function
_Z14abl_TokenToS325token:
.LFB54:
	.loc 5 85 0
	.cfi_startproc
	pushq	%rbp
	.cfi_def_cfa_offset 16
	.cfi_offset 6, -16
	movq	%rsp, %rbp
	.cfi_def_cfa_register 6
	subq	$16, %rsp
	.loc 5 86 0
	movl	$0, -4(%rbp)
	.loc 5 87 0
	movl	16(%rbp), %eax
	cmpl	$18, %eax
	jne	.L110
	.loc 5 89 0
	movq	24(%rbp), %rax
	movq	%rax, %rdi
	call	atoi@PLT
	movl	%eax, -4(%rbp)
.L110:
	.loc 5 100 0
	movl	-4(%rbp), %eax
	.loc 5 101 0
	leave
	.cfi_def_cfa 7, 8
	ret
	.cfi_endproc
.LFE54:
	.size	_Z14abl_TokenToS325token, .-_Z14abl_TokenToS325token
	.globl	_Z15abl_TokenEquals5token13abs_stringptr
	.type	_Z15abl_TokenEquals5token13abs_stringptr, @function
_Z15abl_TokenEquals5token13abs_stringptr:
.LFB55:
	.loc 5 105 0
	.cfi_startproc
	pushq	%rbp
	.cfi_def_cfa_offset 16
	.cfi_offset 6, -16
	movq	%rsp, %rbp
	.cfi_def_cfa_register 6
	subq	$32, %rsp
	movq	%rdi, %rax
	movq	%rsi, %rcx
	movq	%rcx, %rdx
	movq	%rax, -32(%rbp)
	movq	%rdx, -24(%rbp)
	.loc 5 106 0
	movq	-32(%rbp), %rax
	movq	-24(%rbp), %rdx
	movq	24(%rbp), %rdi
	movq	32(%rbp), %rsi
	movq	%rdx, %rcx
	movq	%rax, %rdx
	call	_Z19abs_AreStringsEqual13abs_stringptrS_
	movb	%al, -1(%rbp)
	.loc 5 108 0
	movzbl	-1(%rbp), %eax
	.loc 5 109 0
	leave
	.cfi_def_cfa 7, 8
	ret
	.cfi_endproc
.LFE55:
	.size	_Z15abl_TokenEquals5token13abs_stringptr, .-_Z15abl_TokenEquals5token13abs_stringptr
	.globl	_Z16abl_TokensEquals5tokenS_
	.type	_Z16abl_TokensEquals5tokenS_, @function
_Z16abl_TokensEquals5tokenS_:
.LFB56:
	.loc 5 113 0
	.cfi_startproc
	pushq	%rbp
	.cfi_def_cfa_offset 16
	.cfi_offset 6, -16
	movq	%rsp, %rbp
	.cfi_def_cfa_register 6
	subq	$16, %rsp
	.loc 5 114 0
	movq	48(%rbp), %rax
	movq	56(%rbp), %rdx
	movq	24(%rbp), %rdi
	movq	32(%rbp), %rsi
	movq	%rdx, %rcx
	movq	%rax, %rdx
	call	_Z19abs_AreStringsEqual13abs_stringptrS_
	movb	%al, -1(%rbp)
	.loc 5 116 0
	movzbl	-1(%rbp), %eax
	.loc 5 117 0
	leave
	.cfi_def_cfa 7, 8
	ret
	.cfi_endproc
.LFE56:
	.size	_Z16abl_TokensEquals5tokenS_, .-_Z16abl_TokensEquals5tokenS_
	.section	.text._Z15abl_IsEndOfLinec,"axG",@progbits,_Z15abl_IsEndOfLinec,comdat
	.weak	_Z15abl_IsEndOfLinec
	.type	_Z15abl_IsEndOfLinec, @function
_Z15abl_IsEndOfLinec:
.LFB57:
	.loc 5 121 0
	.cfi_startproc
	pushq	%rbp
	.cfi_def_cfa_offset 16
	.cfi_offset 6, -16
	movq	%rsp, %rbp
	.cfi_def_cfa_register 6
	movl	%edi, %eax
	movb	%al, -20(%rbp)
	.loc 5 122 0
	cmpb	$10, -20(%rbp)
	je	.L117
	.loc 5 122 0 is_stmt 0 discriminator 2
	cmpb	$13, -20(%rbp)
	jne	.L118
.L117:
	.loc 5 122 0 discriminator 3
	movl	$1, %eax
	jmp	.L119
.L118:
	.loc 5 122 0 discriminator 4
	movl	$0, %eax
.L119:
	.loc 5 122 0 discriminator 6
	movb	%al, -1(%rbp)
	.loc 5 124 0 is_stmt 1 discriminator 6
	movzbl	-1(%rbp), %eax
	.loc 5 125 0 discriminator 6
	popq	%rbp
	.cfi_def_cfa 7, 8
	ret
	.cfi_endproc
.LFE57:
	.size	_Z15abl_IsEndOfLinec, .-_Z15abl_IsEndOfLinec
	.section	.text._Z16abl_IsWhitespacec,"axG",@progbits,_Z16abl_IsWhitespacec,comdat
	.weak	_Z16abl_IsWhitespacec
	.type	_Z16abl_IsWhitespacec, @function
_Z16abl_IsWhitespacec:
.LFB58:
	.loc 5 129 0
	.cfi_startproc
	pushq	%rbp
	.cfi_def_cfa_offset 16
	.cfi_offset 6, -16
	movq	%rsp, %rbp
	.cfi_def_cfa_register 6
	movl	%edi, %eax
	movb	%al, -20(%rbp)
	.loc 5 132 0
	cmpb	$32, -20(%rbp)
	je	.L122
	.loc 5 130 0
	cmpb	$12, -20(%rbp)
	je	.L122
	.loc 5 131 0
	cmpb	$9, -20(%rbp)
	je	.L122
	.loc 5 132 0 discriminator 2
	cmpb	$11, -20(%rbp)
	jne	.L123
.L122:
	.loc 5 132 0 is_stmt 0 discriminator 1
	movl	$1, %eax
	jmp	.L124
.L123:
	.loc 5 132 0 discriminator 3
	movl	$0, %eax
.L124:
	.loc 5 130 0 is_stmt 1
	movb	%al, -1(%rbp)
	.loc 5 136 0
	movzbl	-1(%rbp), %eax
	.loc 5 137 0
	popq	%rbp
	.cfi_def_cfa 7, 8
	ret
	.cfi_endproc
.LFE58:
	.size	_Z16abl_IsWhitespacec, .-_Z16abl_IsWhitespacec
	.section	.text._Z11abl_IsAlphac,"axG",@progbits,_Z11abl_IsAlphac,comdat
	.weak	_Z11abl_IsAlphac
	.type	_Z11abl_IsAlphac, @function
_Z11abl_IsAlphac:
.LFB59:
	.loc 5 141 0
	.cfi_startproc
	pushq	%rbp
	.cfi_def_cfa_offset 16
	.cfi_offset 6, -16
	movq	%rsp, %rbp
	.cfi_def_cfa_register 6
	movl	%edi, %eax
	movb	%al, -20(%rbp)
	.loc 5 143 0
	cmpb	$96, -20(%rbp)
	jle	.L127
	.loc 5 142 0
	cmpb	$122, -20(%rbp)
	jle	.L128
.L127:
	.loc 5 142 0 is_stmt 0 discriminator 1
	cmpb	$64, -20(%rbp)
	jle	.L129
	.loc 5 143 0 is_stmt 1
	cmpb	$90, -20(%rbp)
	jle	.L128
.L129:
	.loc 5 143 0 is_stmt 0 discriminator 2
	cmpb	$95, -20(%rbp)
	jne	.L130
.L128:
	.loc 5 143 0 discriminator 3
	movl	$1, %eax
	jmp	.L131
.L130:
	.loc 5 143 0 discriminator 4
	movl	$0, %eax
.L131:
	.loc 5 142 0 is_stmt 1
	movb	%al, -1(%rbp)
	.loc 5 146 0
	movzbl	-1(%rbp), %eax
	.loc 5 147 0
	popq	%rbp
	.cfi_def_cfa 7, 8
	ret
	.cfi_endproc
.LFE59:
	.size	_Z11abl_IsAlphac, .-_Z11abl_IsAlphac
	.section	.text._Z13abl_IsNumericc,"axG",@progbits,_Z13abl_IsNumericc,comdat
	.weak	_Z13abl_IsNumericc
	.type	_Z13abl_IsNumericc, @function
_Z13abl_IsNumericc:
.LFB60:
	.loc 5 151 0
	.cfi_startproc
	pushq	%rbp
	.cfi_def_cfa_offset 16
	.cfi_offset 6, -16
	movq	%rsp, %rbp
	.cfi_def_cfa_register 6
	movl	%edi, %eax
	movb	%al, -20(%rbp)
	.loc 5 152 0
	cmpb	$47, -20(%rbp)
	jle	.L134
	.loc 5 152 0 is_stmt 0 discriminator 1
	cmpb	$57, -20(%rbp)
	jg	.L134
	.loc 5 152 0 discriminator 3
	movl	$1, %eax
	jmp	.L135
.L134:
	.loc 5 152 0 discriminator 4
	movl	$0, %eax
.L135:
	.loc 5 152 0 discriminator 6
	movb	%al, -1(%rbp)
	.loc 5 154 0 is_stmt 1 discriminator 6
	movzbl	-1(%rbp), %eax
	.loc 5 155 0 discriminator 6
	popq	%rbp
	.cfi_def_cfa 7, 8
	ret
	.cfi_endproc
.LFE60:
	.size	_Z13abl_IsNumericc, .-_Z13abl_IsNumericc
	.text
	.globl	_Z20abl_RemoveIgnorablesP5lexer
	.type	_Z20abl_RemoveIgnorablesP5lexer, @function
_Z20abl_RemoveIgnorablesP5lexer:
.LFB61:
	.loc 5 159 0
	.cfi_startproc
	pushq	%rbp
	.cfi_def_cfa_offset 16
	.cfi_offset 6, -16
	movq	%rsp, %rbp
	.cfi_def_cfa_register 6
	subq	$16, %rsp
	movq	%rdi, -8(%rbp)
.L150:
	.loc 5 162 0
	movq	-8(%rbp), %rax
	movq	(%rax), %rax
	movzbl	(%rax), %eax
	movsbl	%al, %eax
	movl	%eax, %edi
	call	_Z16abl_IsWhitespacec
	testb	%al, %al
	setne	%al
	testb	%al, %al
	je	.L138
	.loc 5 164 0
	movq	-8(%rbp), %rax
	movq	(%rax), %rax
	leaq	1(%rax), %rdx
	movq	-8(%rbp), %rax
	movq	%rdx, (%rax)
	jmp	.L150
.L138:
	.loc 5 166 0
	movq	-8(%rbp), %rax
	movq	(%rax), %rax
	movzbl	(%rax), %eax
	movsbl	%al, %eax
	movl	%eax, %edi
	call	_Z15abl_IsEndOfLinec
	testb	%al, %al
	setne	%al
	testb	%al, %al
	je	.L140
	.loc 5 168 0
	movq	-8(%rbp), %rax
	movq	(%rax), %rax
	leaq	1(%rax), %rdx
	movq	-8(%rbp), %rax
	movq	%rdx, (%rax)
	.loc 5 169 0
	movq	-8(%rbp), %rax
	movl	12(%rax), %eax
	leal	1(%rax), %edx
	movq	-8(%rbp), %rax
	movl	%edx, 12(%rax)
	jmp	.L150
.L140:
	.loc 5 171 0
	movq	-8(%rbp), %rax
	movq	(%rax), %rax
	movzbl	(%rax), %eax
	cmpb	$47, %al
	jne	.L141
	.loc 5 172 0 discriminator 1
	movq	-8(%rbp), %rax
	movq	(%rax), %rax
	addq	$1, %rax
	movzbl	(%rax), %eax
	.loc 5 171 0 discriminator 1
	cmpb	$47, %al
	jne	.L141
	.loc 5 174 0
	movq	-8(%rbp), %rax
	movq	(%rax), %rax
	leaq	2(%rax), %rdx
	movq	-8(%rbp), %rax
	movq	%rdx, (%rax)
.L145:
	.loc 5 175 0
	movq	-8(%rbp), %rax
	movq	(%rax), %rax
	movzbl	(%rax), %eax
	testb	%al, %al
	je	.L142
	.loc 5 176 0 discriminator 1
	movq	-8(%rbp), %rax
	movq	(%rax), %rax
	movzbl	(%rax), %eax
	movsbl	%al, %eax
	movl	%eax, %edi
	call	_Z15abl_IsEndOfLinec
	.loc 5 175 0 discriminator 1
	testb	%al, %al
	jne	.L142
	.loc 5 175 0 is_stmt 0 discriminator 3
	movl	$1, %eax
	jmp	.L143
.L142:
	.loc 5 175 0 discriminator 4
	movl	$0, %eax
.L143:
	.loc 5 175 0 discriminator 6
	testb	%al, %al
	je	.L151
	.loc 5 178 0 is_stmt 1
	movq	-8(%rbp), %rax
	movq	(%rax), %rax
	leaq	1(%rax), %rdx
	movq	-8(%rbp), %rax
	movq	%rdx, (%rax)
	.loc 5 175 0
	jmp	.L145
.L141:
	.loc 5 181 0
	movq	-8(%rbp), %rax
	movq	(%rax), %rax
	movzbl	(%rax), %eax
	cmpb	$47, %al
	jne	.L152
	.loc 5 182 0 discriminator 1
	movq	-8(%rbp), %rax
	movq	(%rax), %rax
	addq	$1, %rax
	movzbl	(%rax), %eax
	.loc 5 181 0 discriminator 1
	cmpb	$42, %al
	jne	.L152
	.loc 5 184 0
	movq	-8(%rbp), %rax
	movq	(%rax), %rax
	leaq	2(%rax), %rdx
	movq	-8(%rbp), %rax
	movq	%rdx, (%rax)
.L149:
	.loc 5 185 0
	movq	-8(%rbp), %rax
	movq	(%rax), %rax
	movzbl	(%rax), %eax
	.loc 5 186 0
	testb	%al, %al
	je	.L147
	.loc 5 186 0 is_stmt 0 discriminator 1
	movq	-8(%rbp), %rax
	movq	(%rax), %rax
	movzbl	(%rax), %eax
	.loc 5 185 0 is_stmt 1 discriminator 1
	cmpb	$42, %al
	jne	.L147
	.loc 5 187 0
	movq	-8(%rbp), %rax
	movq	(%rax), %rax
	addq	$1, %rax
	movzbl	(%rax), %eax
	.loc 5 186 0
	cmpb	$47, %al
	jne	.L147
	.loc 5 190 0
	movq	-8(%rbp), %rax
	movq	(%rax), %rax
	leaq	1(%rax), %rdx
	movq	-8(%rbp), %rax
	movq	%rdx, (%rax)
	.loc 5 191 0
	movq	-8(%rbp), %rax
	movq	(%rax), %rax
	movzbl	(%rax), %eax
	movsbl	%al, %eax
	movl	%eax, %edi
	call	_Z15abl_IsEndOfLinec
	testb	%al, %al
	setne	%al
	testb	%al, %al
	je	.L149
	.loc 5 193 0
	movq	-8(%rbp), %rax
	movl	12(%rax), %eax
	leal	1(%rax), %edx
	movq	-8(%rbp), %rax
	movl	%edx, 12(%rax)
	.loc 5 185 0
	jmp	.L149
.L147:
	.loc 5 198 0
	movq	-8(%rbp), %rax
	movq	(%rax), %rax
	movzbl	(%rax), %eax
	cmpb	$42, %al
	jne	.L150
	.loc 5 200 0
	movq	-8(%rbp), %rax
	movq	(%rax), %rax
	leaq	2(%rax), %rdx
	movq	-8(%rbp), %rax
	movq	%rdx, (%rax)
	jmp	.L150
.L151:
	.loc 5 171 0
	nop
	.loc 5 162 0
	jmp	.L150
.L152:
	.loc 5 208 0
	nop
	leave
	.cfi_def_cfa 7, 8
	ret
	.cfi_endproc
.LFE61:
	.size	_Z20abl_RemoveIgnorablesP5lexer, .-_Z20abl_RemoveIgnorablesP5lexer
	.globl	_Z12abl_GetTokenP5lexer
	.type	_Z12abl_GetTokenP5lexer, @function
_Z12abl_GetTokenP5lexer:
.LFB62:
	.loc 5 212 0
	.cfi_startproc
	pushq	%rbp
	.cfi_def_cfa_offset 16
	.cfi_offset 6, -16
	movq	%rsp, %rbp
	.cfi_def_cfa_register 6
	pushq	%rbx
	subq	$72, %rsp
	.cfi_offset 3, -24
	movq	%rdi, -72(%rbp)
	movq	%rsi, -80(%rbp)
	.loc 5 212 0
	movq	%fs:40, %rax
	movq	%rax, -24(%rbp)
	xorl	%eax, %eax
	.loc 5 213 0
	movq	-80(%rbp), %rax
	movq	%rax, %rdi
	call	_Z20abl_RemoveIgnorablesP5lexer
	.loc 5 215 0
	movq	-72(%rbp), %rax
	movq	$0, (%rax)
	movq	$0, 8(%rax)
	movq	$0, 16(%rax)
	.loc 5 216 0
	movq	-80(%rbp), %rax
	movq	(%rax), %rdx
	leaq	-48(%rbp), %rax
	movq	%rdx, %rsi
	movq	%rax, %rdi
	call	_ZN13abs_stringptrC1EPc
	movq	-72(%rbp), %rax
	movq	-48(%rbp), %rdx
	movq	%rdx, 8(%rax)
	movl	-40(%rbp), %edx
	movl	%edx, 16(%rax)
	.loc 5 217 0
	movq	-72(%rbp), %rax
	movl	$1, 16(%rax)
	.loc 5 218 0
	movq	-80(%rbp), %rax
	movq	(%rax), %rax
	movzbl	(%rax), %eax
	movb	%al, -49(%rbp)
	.loc 5 219 0
	movq	-80(%rbp), %rax
	movq	(%rax), %rax
	leaq	1(%rax), %rdx
	movq	-80(%rbp), %rax
	movq	%rdx, (%rax)
	.loc 5 220 0
	movsbl	-49(%rbp), %eax
	cmpl	$125, %eax
	ja	.L154
	movl	%eax, %eax
	leaq	0(,%rax,4), %rdx
	leaq	.L156(%rip), %rax
	movl	(%rdx,%rax), %eax
	movslq	%eax, %rdx
	leaq	.L156(%rip), %rax
	addq	%rdx, %rax
	jmp	*%rax
	.section	.rodata
	.align 4
	.align 4
.L156:
	.long	.L155-.L156
	.long	.L154-.L156
	.long	.L154-.L156
	.long	.L154-.L156
	.long	.L154-.L156
	.long	.L154-.L156
	.long	.L154-.L156
	.long	.L154-.L156
	.long	.L154-.L156
	.long	.L154-.L156
	.long	.L154-.L156
	.long	.L154-.L156
	.long	.L154-.L156
	.long	.L154-.L156
	.long	.L154-.L156
	.long	.L154-.L156
	.long	.L154-.L156
	.long	.L154-.L156
	.long	.L154-.L156
	.long	.L154-.L156
	.long	.L154-.L156
	.long	.L154-.L156
	.long	.L154-.L156
	.long	.L154-.L156
	.long	.L154-.L156
	.long	.L154-.L156
	.long	.L154-.L156
	.long	.L154-.L156
	.long	.L154-.L156
	.long	.L154-.L156
	.long	.L154-.L156
	.long	.L154-.L156
	.long	.L154-.L156
	.long	.L154-.L156
	.long	.L157-.L156
	.long	.L158-.L156
	.long	.L159-.L156
	.long	.L154-.L156
	.long	.L160-.L156
	.long	.L154-.L156
	.long	.L161-.L156
	.long	.L162-.L156
	.long	.L163-.L156
	.long	.L154-.L156
	.long	.L164-.L156
	.long	.L154-.L156
	.long	.L154-.L156
	.long	.L165-.L156
	.long	.L154-.L156
	.long	.L154-.L156
	.long	.L154-.L156
	.long	.L154-.L156
	.long	.L154-.L156
	.long	.L154-.L156
	.long	.L154-.L156
	.long	.L154-.L156
	.long	.L154-.L156
	.long	.L154-.L156
	.long	.L166-.L156
	.long	.L167-.L156
	.long	.L154-.L156
	.long	.L154-.L156
	.long	.L154-.L156
	.long	.L154-.L156
	.long	.L154-.L156
	.long	.L154-.L156
	.long	.L154-.L156
	.long	.L154-.L156
	.long	.L154-.L156
	.long	.L154-.L156
	.long	.L154-.L156
	.long	.L154-.L156
	.long	.L154-.L156
	.long	.L154-.L156
	.long	.L154-.L156
	.long	.L154-.L156
	.long	.L154-.L156
	.long	.L154-.L156
	.long	.L154-.L156
	.long	.L154-.L156
	.long	.L154-.L156
	.long	.L154-.L156
	.long	.L154-.L156
	.long	.L154-.L156
	.long	.L154-.L156
	.long	.L154-.L156
	.long	.L154-.L156
	.long	.L154-.L156
	.long	.L154-.L156
	.long	.L154-.L156
	.long	.L154-.L156
	.long	.L168-.L156
	.long	.L169-.L156
	.long	.L170-.L156
	.long	.L154-.L156
	.long	.L154-.L156
	.long	.L154-.L156
	.long	.L154-.L156
	.long	.L154-.L156
	.long	.L154-.L156
	.long	.L154-.L156
	.long	.L154-.L156
	.long	.L154-.L156
	.long	.L154-.L156
	.long	.L154-.L156
	.long	.L154-.L156
	.long	.L154-.L156
	.long	.L154-.L156
	.long	.L154-.L156
	.long	.L154-.L156
	.long	.L154-.L156
	.long	.L154-.L156
	.long	.L154-.L156
	.long	.L154-.L156
	.long	.L154-.L156
	.long	.L154-.L156
	.long	.L154-.L156
	.long	.L154-.L156
	.long	.L154-.L156
	.long	.L154-.L156
	.long	.L154-.L156
	.long	.L154-.L156
	.long	.L154-.L156
	.long	.L171-.L156
	.long	.L154-.L156
	.long	.L172-.L156
	.text
.L155:
	.loc 5 223 0
	movq	-72(%rbp), %rax
	movl	$19, (%rax)
	jmp	.L173
.L161:
	.loc 5 226 0
	movq	-72(%rbp), %rax
	movl	$1, (%rax)
	jmp	.L173
.L162:
	.loc 5 229 0
	movq	-72(%rbp), %rax
	movl	$2, (%rax)
	jmp	.L173
.L168:
	.loc 5 232 0
	movq	-72(%rbp), %rax
	movl	$7, (%rax)
	jmp	.L173
.L170:
	.loc 5 235 0
	movq	-72(%rbp), %rax
	movl	$8, (%rax)
	jmp	.L173
.L171:
	.loc 5 238 0
	movq	-72(%rbp), %rax
	movl	$9, (%rax)
	movq	-80(%rbp), %rax
	movl	8(%rax), %eax
	leal	1(%rax), %edx
	movq	-80(%rbp), %rax
	movl	%edx, 8(%rax)
	jmp	.L173
.L172:
	.loc 5 241 0
	movq	-72(%rbp), %rax
	movl	$10, (%rax)
	movq	-80(%rbp), %rax
	movl	8(%rax), %eax
	leal	-1(%rax), %edx
	movq	-80(%rbp), %rax
	movl	%edx, 8(%rax)
	jmp	.L173
.L166:
	.loc 5 244 0
	movq	-72(%rbp), %rax
	movl	$3, (%rax)
	jmp	.L173
.L167:
	.loc 5 247 0
	movq	-72(%rbp), %rax
	movl	$4, (%rax)
	jmp	.L173
.L164:
	.loc 5 250 0
	movq	-72(%rbp), %rax
	movl	$5, (%rax)
	jmp	.L173
.L159:
	.loc 5 253 0
	movq	-72(%rbp), %rax
	movl	$11, (%rax)
	jmp	.L173
.L163:
	.loc 5 256 0
	movq	-72(%rbp), %rax
	movl	$6, (%rax)
	jmp	.L173
.L169:
	.loc 5 259 0
	movq	-72(%rbp), %rax
	movl	$12, (%rax)
	jmp	.L173
.L165:
	.loc 5 262 0
	movq	-72(%rbp), %rax
	movl	$13, (%rax)
	jmp	.L173
.L160:
	.loc 5 265 0
	movq	-72(%rbp), %rax
	movl	$14, (%rax)
	jmp	.L173
.L158:
	.loc 5 268 0
	movq	-72(%rbp), %rax
	movl	$15, (%rax)
	jmp	.L173
.L157:
	.loc 5 272 0
	movq	-72(%rbp), %rax
	movl	$16, (%rax)
	.loc 5 273 0
	movq	-80(%rbp), %rax
	movq	(%rax), %rdx
	movq	-72(%rbp), %rax
	movq	%rdx, 8(%rax)
.L176:
	.loc 5 274 0
	movq	-80(%rbp), %rax
	movq	(%rax), %rax
	movzbl	(%rax), %eax
	testb	%al, %al
	je	.L174
	.loc 5 275 0 discriminator 1
	movq	-80(%rbp), %rax
	movq	(%rax), %rax
	movzbl	(%rax), %eax
	.loc 5 274 0 discriminator 1
	cmpb	$34, %al
	je	.L174
	.loc 5 277 0
	movq	-80(%rbp), %rax
	movq	(%rax), %rax
	movzbl	(%rax), %eax
	cmpb	$92, %al
	jne	.L175
	.loc 5 278 0 discriminator 1
	movq	-80(%rbp), %rax
	movq	(%rax), %rax
	addq	$1, %rax
	movzbl	(%rax), %eax
	.loc 5 277 0 discriminator 1
	testb	%al, %al
	je	.L175
	.loc 5 280 0
	movq	-80(%rbp), %rax
	movq	(%rax), %rax
	leaq	1(%rax), %rdx
	movq	-80(%rbp), %rax
	movq	%rdx, (%rax)
.L175:
	.loc 5 282 0
	movq	-80(%rbp), %rax
	movq	(%rax), %rax
	leaq	1(%rax), %rdx
	movq	-80(%rbp), %rax
	movq	%rdx, (%rax)
	.loc 5 274 0
	jmp	.L176
.L174:
	.loc 5 285 0
	movq	-80(%rbp), %rax
	movq	(%rax), %rax
	movq	%rax, %rbx
	movq	-72(%rbp), %rax
	addq	$8, %rax
	movq	%rax, %rdi
	call	_ZNK13abs_stringptrcvPKcEv
	subq	%rax, %rbx
	movq	%rbx, %rax
	movl	%eax, %edx
	movq	-72(%rbp), %rax
	movl	%edx, 16(%rax)
	.loc 5 286 0
	movq	-80(%rbp), %rax
	movq	(%rax), %rax
	movzbl	(%rax), %eax
	cmpb	$34, %al
	jne	.L193
	.loc 5 288 0
	movq	-80(%rbp), %rax
	movq	(%rax), %rax
	leaq	1(%rax), %rdx
	movq	-80(%rbp), %rax
	movq	%rdx, (%rax)
	.loc 5 290 0
	jmp	.L193
.L154:
	.loc 5 294 0
	movsbl	-49(%rbp), %eax
	movl	%eax, %edi
	call	_Z11abl_IsAlphac
	testb	%al, %al
	setne	%al
	testb	%al, %al
	je	.L178
	.loc 5 296 0
	movq	-72(%rbp), %rax
	movl	$17, (%rax)
.L183:
	.loc 5 297 0
	movq	-80(%rbp), %rax
	movq	(%rax), %rax
	movzbl	(%rax), %eax
	movsbl	%al, %eax
	movl	%eax, %edi
	call	_Z11abl_IsAlphac
	testb	%al, %al
	jne	.L179
	.loc 5 298 0 discriminator 2
	movq	-80(%rbp), %rax
	movq	(%rax), %rax
	movzbl	(%rax), %eax
	movsbl	%al, %eax
	movl	%eax, %edi
	call	_Z13abl_IsNumericc
	.loc 5 297 0 discriminator 2
	testb	%al, %al
	je	.L180
.L179:
	.loc 5 297 0 is_stmt 0 discriminator 3
	movl	$1, %eax
	jmp	.L181
.L180:
	.loc 5 297 0 discriminator 4
	movl	$0, %eax
.L181:
	.loc 5 297 0 discriminator 6
	testb	%al, %al
	je	.L182
	.loc 5 300 0 is_stmt 1
	movq	-80(%rbp), %rax
	movq	(%rax), %rax
	leaq	1(%rax), %rdx
	movq	-80(%rbp), %rax
	movq	%rdx, (%rax)
	.loc 5 297 0
	jmp	.L183
.L182:
	.loc 5 303 0
	movq	-80(%rbp), %rax
	movq	(%rax), %rax
	movq	%rax, %rbx
	movq	-72(%rbp), %rax
	addq	$8, %rax
	movq	%rax, %rdi
	call	_ZNK13abs_stringptrcvPKcEv
	subq	%rax, %rbx
	movq	%rbx, %rax
	movl	%eax, %edx
	movq	-72(%rbp), %rax
	movl	%edx, 16(%rax)
	.loc 5 324 0
	jmp	.L173
.L178:
	.loc 5 305 0
	movsbl	-49(%rbp), %eax
	movl	%eax, %edi
	call	_Z13abl_IsNumericc
	testb	%al, %al
	setne	%al
	testb	%al, %al
	je	.L185
	.loc 5 310 0
	movq	-72(%rbp), %rax
	movl	$18, (%rax)
.L190:
	.loc 5 311 0
	movq	-80(%rbp), %rax
	movq	(%rax), %rax
	movzbl	(%rax), %eax
	movsbl	%al, %eax
	movl	%eax, %edi
	call	_Z11abl_IsAlphac
	.loc 5 312 0
	testb	%al, %al
	jne	.L186
	.loc 5 312 0 is_stmt 0 discriminator 2
	movq	-80(%rbp), %rax
	movq	(%rax), %rax
	movzbl	(%rax), %eax
	movsbl	%al, %eax
	movl	%eax, %edi
	call	_Z13abl_IsNumericc
	.loc 5 311 0 is_stmt 1 discriminator 2
	testb	%al, %al
	jne	.L186
	.loc 5 313 0 discriminator 3
	movq	-80(%rbp), %rax
	movq	(%rax), %rax
	movzbl	(%rax), %eax
	.loc 5 312 0 discriminator 3
	cmpb	$46, %al
	jne	.L187
.L186:
	.loc 5 312 0 is_stmt 0 discriminator 1
	movl	$1, %eax
	jmp	.L188
.L187:
	.loc 5 312 0 discriminator 4
	movl	$0, %eax
.L188:
	.loc 5 312 0 discriminator 6
	testb	%al, %al
	je	.L189
	.loc 5 315 0 is_stmt 1
	movq	-80(%rbp), %rax
	movq	(%rax), %rax
	leaq	1(%rax), %rdx
	movq	-80(%rbp), %rax
	movq	%rdx, (%rax)
	.loc 5 311 0
	jmp	.L190
.L189:
	.loc 5 318 0
	movq	-80(%rbp), %rax
	movq	(%rax), %rax
	movq	%rax, %rbx
	movq	-72(%rbp), %rax
	addq	$8, %rax
	movq	%rax, %rdi
	call	_ZNK13abs_stringptrcvPKcEv
	subq	%rax, %rbx
	movq	%rbx, %rax
	movl	%eax, %edx
	movq	-72(%rbp), %rax
	movl	%edx, 16(%rax)
	.loc 5 324 0
	jmp	.L173
.L185:
	.loc 5 322 0
	movq	-72(%rbp), %rax
	movl	$0, (%rax)
	.loc 5 324 0
	jmp	.L173
.L193:
	.loc 5 290 0
	nop
.L173:
	.loc 5 327 0 discriminator 1
	nop
	.loc 5 328 0 discriminator 1
	movq	-72(%rbp), %rax
	movq	-24(%rbp), %rcx
	xorq	%fs:40, %rcx
	je	.L192
	.loc 5 328 0 is_stmt 0
	call	__stack_chk_fail@PLT
.L192:
	addq	$72, %rsp
	popq	%rbx
	popq	%rbp
	.cfi_def_cfa 7, 8
	ret
	.cfi_endproc
.LFE62:
	.size	_Z12abl_GetTokenP5lexer, .-_Z12abl_GetTokenP5lexer
	.globl	_Z13abl_PeekTokenP5lexer
	.type	_Z13abl_PeekTokenP5lexer, @function
_Z13abl_PeekTokenP5lexer:
.LFB63:
	.loc 5 333 0 is_stmt 1
	.cfi_startproc
	pushq	%rbp
	.cfi_def_cfa_offset 16
	.cfi_offset 6, -16
	movq	%rsp, %rbp
	.cfi_def_cfa_register 6
	subq	$32, %rsp
	movq	%rdi, -24(%rbp)
	movq	%rsi, -32(%rbp)
	.loc 5 333 0
	movq	%fs:40, %rax
	movq	%rax, -8(%rbp)
	xorl	%eax, %eax
	.loc 5 334 0
	movq	-32(%rbp), %rax
	movq	(%rax), %rax
	movq	%rax, -16(%rbp)
	.loc 5 335 0
	movq	-24(%rbp), %rax
	movq	-32(%rbp), %rdx
	movq	%rdx, %rsi
	movq	%rax, %rdi
	call	_Z12abl_GetTokenP5lexer
	.loc 5 336 0
	movq	-32(%rbp), %rax
	movq	-16(%rbp), %rdx
	movq	%rdx, (%rax)
	.loc 5 338 0
	nop
	.loc 5 339 0
	movq	-24(%rbp), %rax
	movq	-8(%rbp), %rcx
	xorq	%fs:40, %rcx
	je	.L196
	call	__stack_chk_fail@PLT
.L196:
	leave
	.cfi_def_cfa 7, 8
	ret
	.cfi_endproc
.LFE63:
	.size	_Z13abl_PeekTokenP5lexer, .-_Z13abl_PeekTokenP5lexer
	.globl	_Z12RequireTokenP5lexer10token_type
	.type	_Z12RequireTokenP5lexer10token_type, @function
_Z12RequireTokenP5lexer10token_type:
.LFB64:
	.file 6 "/home/amos/prog/c/amos_libraries/preprocessor/ab_parser.h"
	.loc 6 170 0
	.cfi_startproc
	pushq	%rbp
	.cfi_def_cfa_offset 16
	.cfi_offset 6, -16
	movq	%rsp, %rbp
	.cfi_def_cfa_register 6
	subq	$64, %rsp
	movq	%rdi, -56(%rbp)
	movl	%esi, -60(%rbp)
	.loc 6 170 0
	movq	%fs:40, %rax
	movq	%rax, -8(%rbp)
	xorl	%eax, %eax
	.loc 6 171 0
	leaq	-32(%rbp), %rax
	movq	-56(%rbp), %rdx
	movq	%rdx, %rsi
	movq	%rax, %rdi
	call	_Z12abl_GetTokenP5lexer
	.loc 6 172 0
	movl	-32(%rbp), %eax
	cmpl	%eax, -60(%rbp)
	sete	%al
	movb	%al, -33(%rbp)
	.loc 6 174 0
	movzbl	-33(%rbp), %eax
	.loc 6 175 0
	movq	-8(%rbp), %rcx
	xorq	%fs:40, %rcx
	je	.L199
	call	__stack_chk_fail@PLT
.L199:
	leave
	.cfi_def_cfa 7, 8
	ret
	.cfi_endproc
.LFE64:
	.size	_Z12RequireTokenP5lexer10token_type, .-_Z12RequireTokenP5lexer10token_type
	.globl	_Z13OptionalTokenP5lexer10token_type
	.type	_Z13OptionalTokenP5lexer10token_type, @function
_Z13OptionalTokenP5lexer10token_type:
.LFB65:
	.loc 6 179 0
	.cfi_startproc
	pushq	%rbp
	.cfi_def_cfa_offset 16
	.cfi_offset 6, -16
	movq	%rsp, %rbp
	.cfi_def_cfa_register 6
	subq	$96, %rsp
	movq	%rdi, -88(%rbp)
	movl	%esi, -92(%rbp)
	.loc 6 179 0
	movq	%fs:40, %rax
	movq	%rax, -8(%rbp)
	xorl	%eax, %eax
	.loc 6 180 0
	leaq	-64(%rbp), %rax
	movq	-88(%rbp), %rdx
	movq	%rdx, %rsi
	movq	%rax, %rdi
	call	_Z13abl_PeekTokenP5lexer
	.loc 6 181 0
	movl	-64(%rbp), %eax
	cmpl	%eax, -92(%rbp)
	sete	%al
	movb	%al, -65(%rbp)
	.loc 6 183 0
	cmpb	$0, -65(%rbp)
	je	.L201
	.loc 6 185 0
	leaq	-32(%rbp), %rax
	movq	-88(%rbp), %rdx
	movq	%rdx, %rsi
	movq	%rax, %rdi
	call	_Z12abl_GetTokenP5lexer
.L201:
	.loc 6 187 0
	movzbl	-65(%rbp), %eax
	.loc 6 188 0
	movq	-8(%rbp), %rcx
	xorq	%fs:40, %rcx
	je	.L203
	call	__stack_chk_fail@PLT
.L203:
	leave
	.cfi_def_cfa 7, 8
	ret
	.cfi_endproc
.LFE65:
	.size	_Z13OptionalTokenP5lexer10token_type, .-_Z13OptionalTokenP5lexer10token_type
	.globl	_Z15NextTokenEqualsP5lexer13abs_stringptr
	.type	_Z15NextTokenEqualsP5lexer13abs_stringptr, @function
_Z15NextTokenEqualsP5lexer13abs_stringptr:
.LFB66:
	.loc 6 192 0
	.cfi_startproc
	pushq	%rbp
	.cfi_def_cfa_offset 16
	.cfi_offset 6, -16
	movq	%rsp, %rbp
	.cfi_def_cfa_register 6
	subq	$112, %rsp
	movq	%rdi, -88(%rbp)
	movq	%rsi, %rax
	movq	%rdx, %rcx
	movq	%rcx, %rdx
	movq	%rax, -112(%rbp)
	movq	%rdx, -104(%rbp)
	.loc 6 192 0
	movq	%fs:40, %rax
	movq	%rax, -8(%rbp)
	xorl	%eax, %eax
	.loc 6 193 0
	movb	$0, -65(%rbp)
	.loc 6 195 0
	leaq	-64(%rbp), %rax
	movq	-88(%rbp), %rdx
	movq	%rdx, %rsi
	movq	%rax, %rdi
	call	_Z13abl_PeekTokenP5lexer
	.loc 6 196 0
	movq	-112(%rbp), %rdx
	movq	-104(%rbp), %rax
	subq	$8, %rsp
	pushq	-48(%rbp)
	pushq	-56(%rbp)
	pushq	-64(%rbp)
	movq	%rdx, %rdi
	movq	%rax, %rsi
	call	_Z15abl_TokenEquals5token13abs_stringptr
	addq	$32, %rsp
	testb	%al, %al
	setne	%al
	testb	%al, %al
	je	.L205
	.loc 6 198 0
	leaq	-32(%rbp), %rax
	movq	-88(%rbp), %rdx
	movq	%rdx, %rsi
	movq	%rax, %rdi
	call	_Z12abl_GetTokenP5lexer
	.loc 6 199 0
	movb	$1, -65(%rbp)
.L205:
	.loc 6 202 0
	movzbl	-65(%rbp), %eax
	.loc 6 203 0
	movq	-8(%rbp), %rcx
	xorq	%fs:40, %rcx
	je	.L207
	call	__stack_chk_fail@PLT
.L207:
	leave
	.cfi_def_cfa 7, 8
	ret
	.cfi_endproc
.LFE66:
	.size	_Z15NextTokenEqualsP5lexer13abs_stringptr, .-_Z15NextTokenEqualsP5lexer13abs_stringptr
	.section	.rodata
.LC2:
	.string	"TAG"
	.text
	.globl	_Z13ParseEnumitemP5lexerP6parser
	.type	_Z13ParseEnumitemP5lexerP6parser, @function
_Z13ParseEnumitemP5lexerP6parser:
.LFB67:
	.loc 6 207 0
	.cfi_startproc
	pushq	%rbp
	.cfi_def_cfa_offset 16
	.cfi_offset 6, -16
	movq	%rsp, %rbp
	.cfi_def_cfa_register 6
	subq	$192, %rsp
	movq	%rdi, -136(%rbp)
	movq	%rsi, -144(%rbp)
	.loc 6 207 0
	movq	%fs:40, %rax
	movq	%rax, -8(%rbp)
	xorl	%eax, %eax
	.loc 6 208 0
	movq	$0, -120(%rbp)
	.loc 6 209 0
	movq	$0, -64(%rbp)
	movq	$0, -56(%rbp)
	movq	$0, -48(%rbp)
	movq	$0, -40(%rbp)
	movq	$0, -32(%rbp)
	movq	$0, -24(%rbp)
	.loc 6 210 0
	leaq	-64(%rbp), %rax
	movq	%rax, -32(%rbp)
	leaq	-64(%rbp), %rax
	movq	%rax, -24(%rbp)
	.loc 6 211 0
	leaq	-96(%rbp), %rax
	movq	-136(%rbp), %rdx
	movq	%rdx, %rsi
	movq	%rax, %rdi
	call	_Z12abl_GetTokenP5lexer
	.loc 6 212 0
	leaq	-112(%rbp), %rax
	leaq	.LC2(%rip), %rsi
	movq	%rax, %rdi
	call	_ZN13abs_stringptrC1EPKc
	movq	-112(%rbp), %rdx
	movq	-104(%rbp), %rax
	subq	$8, %rsp
	pushq	-80(%rbp)
	pushq	-88(%rbp)
	pushq	-96(%rbp)
	movq	%rdx, %rdi
	movq	%rax, %rsi
	call	_Z15abl_TokenEquals5token13abs_stringptr
	addq	$32, %rsp
	testb	%al, %al
	setne	%al
	testb	%al, %al
	je	.L209
	.loc 6 214 0
	leaq	-192(%rbp), %rax
	movq	-144(%rbp), %rdx
	movq	-136(%rbp), %rcx
	movq	%rcx, %rsi
	movq	%rax, %rdi
	call	_Z8ParseTagP5lexerP6parser
	movq	-192(%rbp), %rax
	movq	-184(%rbp), %rdx
	movq	%rax, -64(%rbp)
	movq	%rdx, -56(%rbp)
	movq	-176(%rbp), %rax
	movq	-168(%rbp), %rdx
	movq	%rax, -48(%rbp)
	movq	%rdx, -40(%rbp)
	movq	-160(%rbp), %rax
	movq	-152(%rbp), %rdx
	movq	%rax, -32(%rbp)
	movq	%rdx, -24(%rbp)
	.loc 6 215 0
	leaq	-192(%rbp), %rax
	movq	-136(%rbp), %rdx
	movq	%rdx, %rsi
	movq	%rax, %rdi
	call	_Z12abl_GetTokenP5lexer
	movq	-192(%rbp), %rax
	movq	-184(%rbp), %rdx
	movq	%rax, -96(%rbp)
	movq	%rdx, -88(%rbp)
	movq	-176(%rbp), %rax
	movq	%rax, -80(%rbp)
.L209:
	.loc 6 218 0
	movl	-96(%rbp), %eax
	cmpl	$17, %eax
	jne	.L210
	.loc 6 220 0
	movq	-144(%rbp), %rax
	movq	(%rax), %rax
	movl	$1, %edx
	movl	$80, %esi
	movq	%rax, %rdi
	call	_Z13abm_PushSize_P12memory_arenama
	movq	%rax, -120(%rbp)
	.loc 6 221 0
	movq	-120(%rbp), %rax
	leaq	16(%rax), %rdx
	movq	-120(%rbp), %rax
	movq	%rdx, 48(%rax)
	movq	-120(%rbp), %rax
	leaq	16(%rax), %rdx
	movq	-120(%rbp), %rax
	movq	%rdx, 56(%rax)
	.loc 6 222 0
	movq	-24(%rbp), %rax
	movq	-120(%rbp), %rdx
	addq	$16, %rdx
	movq	%rdx, 32(%rax)
	movq	-32(%rbp), %rax
	movq	-120(%rbp), %rdx
	movq	56(%rdx), %rdx
	movq	%rdx, 40(%rax)
	movq	-120(%rbp), %rax
	movq	56(%rax), %rax
	movq	-32(%rbp), %rdx
	movq	%rdx, 32(%rax)
	movq	-24(%rbp), %rdx
	movq	-120(%rbp), %rax
	movq	%rdx, 56(%rax)
	.loc 6 223 0
	movq	-120(%rbp), %rax
	movq	-88(%rbp), %rdx
	movq	%rdx, (%rax)
	movl	-80(%rbp), %edx
	movl	%edx, 8(%rax)
.L210:
	.loc 6 226 0
	movq	-120(%rbp), %rax
	.loc 6 227 0
	movq	-8(%rbp), %rcx
	xorq	%fs:40, %rcx
	je	.L212
	call	__stack_chk_fail@PLT
.L212:
	leave
	.cfi_def_cfa 7, 8
	ret
	.cfi_endproc
.LFE67:
	.size	_Z13ParseEnumitemP5lexerP6parser, .-_Z13ParseEnumitemP5lexerP6parser
	.section	.rodata
.LC3:
	.string	"const"
	.text
	.globl	_Z9ParseTypeP5lexerP6parser
	.type	_Z9ParseTypeP5lexerP6parser, @function
_Z9ParseTypeP5lexerP6parser:
.LFB68:
	.loc 6 231 0
	.cfi_startproc
	pushq	%rbp
	.cfi_def_cfa_offset 16
	.cfi_offset 6, -16
	movq	%rsp, %rbp
	.cfi_def_cfa_register 6
	subq	$112, %rsp
	movq	%rdi, -72(%rbp)
	movq	%rsi, -80(%rbp)
	.loc 6 231 0
	movq	%fs:40, %rax
	movq	%rax, -8(%rbp)
	xorl	%eax, %eax
	.loc 6 232 0
	movq	-80(%rbp), %rax
	movq	(%rax), %rax
	movl	$1, %edx
	movl	$64, %esi
	movq	%rax, %rdi
	call	_Z13abm_PushSize_P12memory_arenama
	movq	%rax, -56(%rbp)
	.loc 6 235 0
	leaq	-32(%rbp), %rax
	leaq	.LC3(%rip), %rsi
	movq	%rax, %rdi
	call	_ZN13abs_stringptrC1EPKc
	movq	-32(%rbp), %rcx
	movq	-24(%rbp), %rdx
	movq	-72(%rbp), %rax
	movq	%rcx, %rsi
	movq	%rax, %rdi
	call	_Z15NextTokenEqualsP5lexer13abs_stringptr
	testb	%al, %al
	setne	%al
	testb	%al, %al
	je	.L214
	.loc 6 237 0
	movq	-56(%rbp), %rax
	movb	$1, 34(%rax)
.L214:
	.loc 6 240 0
	leaq	-112(%rbp), %rax
	movq	-72(%rbp), %rdx
	movq	%rdx, %rsi
	movq	%rax, %rdi
	call	_Z12abl_GetTokenP5lexer
	movq	-112(%rbp), %rax
	movq	-104(%rbp), %rdx
	movq	%rax, -32(%rbp)
	movq	%rdx, -24(%rbp)
	movq	-96(%rbp), %rax
	movq	%rax, -16(%rbp)
	.loc 6 241 0
	movl	-32(%rbp), %eax
	cmpl	$17, %eax
	jne	.L215
	.loc 6 243 0
	movq	-56(%rbp), %rax
	movq	-24(%rbp), %rdx
	movq	%rdx, (%rax)
	movl	-16(%rbp), %edx
	movl	%edx, 8(%rax)
.L215:
	.loc 6 250 0
	leaq	-48(%rbp), %rax
	leaq	.LC3(%rip), %rsi
	movq	%rax, %rdi
	call	_ZN13abs_stringptrC1EPKc
	movq	-48(%rbp), %rcx
	movq	-40(%rbp), %rdx
	movq	-72(%rbp), %rax
	movq	%rcx, %rsi
	movq	%rax, %rdi
	call	_Z15NextTokenEqualsP5lexer13abs_stringptr
	testb	%al, %al
	setne	%al
	testb	%al, %al
	je	.L216
	.loc 6 252 0
	movq	-56(%rbp), %rax
	movb	$1, 34(%rax)
.L216:
	.loc 6 255 0
	movq	-72(%rbp), %rax
	movl	$6, %esi
	movq	%rax, %rdi
	call	_Z13OptionalTokenP5lexer10token_type
	testb	%al, %al
	setne	%al
	testb	%al, %al
	je	.L217
	.loc 6 257 0
	movq	-56(%rbp), %rax
	movb	$1, 32(%rax)
	jmp	.L218
.L217:
	.loc 6 259 0
	movq	-72(%rbp), %rax
	movl	$14, %esi
	movq	%rax, %rdi
	call	_Z13OptionalTokenP5lexer10token_type
	testb	%al, %al
	setne	%al
	testb	%al, %al
	je	.L218
	.loc 6 261 0
	movq	-56(%rbp), %rax
	movb	$1, 33(%rax)
.L218:
	.loc 6 264 0
	movq	-56(%rbp), %rax
	.loc 6 265 0
	movq	-8(%rbp), %rcx
	xorq	%fs:40, %rcx
	je	.L220
	call	__stack_chk_fail@PLT
.L220:
	leave
	.cfi_def_cfa 7, 8
	ret
	.cfi_endproc
.LFE68:
	.size	_Z9ParseTypeP5lexerP6parser, .-_Z9ParseTypeP5lexerP6parser
	.globl	_Z13ParseTypeExprP5lexerP6parser
	.type	_Z13ParseTypeExprP5lexerP6parser, @function
_Z13ParseTypeExprP5lexerP6parser:
.LFB69:
	.loc 6 269 0
	.cfi_startproc
	pushq	%rbp
	.cfi_def_cfa_offset 16
	.cfi_offset 6, -16
	movq	%rsp, %rbp
	.cfi_def_cfa_register 6
	subq	$96, %rsp
	movq	%rdi, -56(%rbp)
	movq	%rsi, -64(%rbp)
	.loc 6 269 0
	movq	%fs:40, %rax
	movq	%rax, -8(%rbp)
	xorl	%eax, %eax
	.loc 6 270 0
	movq	-64(%rbp), %rdx
	movq	-56(%rbp), %rax
	movq	%rdx, %rsi
	movq	%rax, %rdi
	call	_Z9ParseTypeP5lexerP6parser
	movq	%rax, -40(%rbp)
	.loc 6 271 0
	leaq	-32(%rbp), %rax
	movq	-56(%rbp), %rdx
	movq	%rdx, %rsi
	movq	%rax, %rdi
	call	_Z12abl_GetTokenP5lexer
	.loc 6 273 0
	cmpq	$0, -40(%rbp)
	je	.L222
	.loc 6 275 0
	movl	-32(%rbp), %eax
	cmpl	$17, %eax
	jne	.L223
	.loc 6 277 0
	movq	-40(%rbp), %rax
	movq	-24(%rbp), %rdx
	movq	%rdx, 16(%rax)
	movl	-16(%rbp), %edx
	movl	%edx, 24(%rax)
.L223:
	.loc 6 284 0
	movq	-56(%rbp), %rax
	movl	$7, %esi
	movq	%rax, %rdi
	call	_Z13OptionalTokenP5lexer10token_type
	testb	%al, %al
	setne	%al
	testb	%al, %al
	je	.L222
	.loc 6 286 0
	leaq	-96(%rbp), %rax
	movq	-56(%rbp), %rdx
	movq	%rdx, %rsi
	movq	%rax, %rdi
	call	_Z12abl_GetTokenP5lexer
	movq	-96(%rbp), %rax
	movq	-88(%rbp), %rdx
	movq	%rax, -32(%rbp)
	movq	%rdx, -24(%rbp)
	movq	-80(%rbp), %rax
	movq	%rax, -16(%rbp)
	.loc 6 287 0
	movq	-40(%rbp), %rax
	movb	$1, 35(%rax)
	.loc 6 288 0
	subq	$8, %rsp
	pushq	-16(%rbp)
	pushq	-24(%rbp)
	pushq	-32(%rbp)
	call	_Z14abl_TokenToS325token
	addq	$32, %rsp
	movl	%eax, %edx
	movq	-40(%rbp), %rax
	movl	%edx, 36(%rax)
	.loc 6 289 0
	movq	-56(%rbp), %rax
	movl	$8, %esi
	movq	%rax, %rdi
	call	_Z12RequireTokenP5lexer10token_type
	testb	%al, %al
.L222:
	.loc 6 296 0
	movq	-40(%rbp), %rax
	.loc 6 297 0
	movq	-8(%rbp), %rcx
	xorq	%fs:40, %rcx
	je	.L225
	call	__stack_chk_fail@PLT
.L225:
	leave
	.cfi_def_cfa 7, 8
	ret
	.cfi_endproc
.LFE69:
	.size	_Z13ParseTypeExprP5lexerP6parser, .-_Z13ParseTypeExprP5lexerP6parser
	.globl	_Z15ParseStructItemP5lexerP6parser
	.type	_Z15ParseStructItemP5lexerP6parser, @function
_Z15ParseStructItemP5lexerP6parser:
.LFB70:
	.loc 6 301 0
	.cfi_startproc
	pushq	%rbp
	.cfi_def_cfa_offset 16
	.cfi_offset 6, -16
	movq	%rsp, %rbp
	.cfi_def_cfa_register 6
	subq	$160, %rsp
	movq	%rdi, -104(%rbp)
	movq	%rsi, -112(%rbp)
	.loc 6 301 0
	movq	%fs:40, %rax
	movq	%rax, -8(%rbp)
	xorl	%eax, %eax
	.loc 6 302 0
	movq	$0, -96(%rbp)
	.loc 6 303 0
	movq	$0, -64(%rbp)
	movq	$0, -56(%rbp)
	movq	$0, -48(%rbp)
	movq	$0, -40(%rbp)
	movq	$0, -32(%rbp)
	movq	$0, -24(%rbp)
	.loc 6 304 0
	leaq	-64(%rbp), %rax
	movq	%rax, -32(%rbp)
	leaq	-64(%rbp), %rax
	movq	%rax, -24(%rbp)
	.loc 6 305 0
	leaq	-80(%rbp), %rax
	leaq	.LC2(%rip), %rsi
	movq	%rax, %rdi
	call	_ZN13abs_stringptrC1EPKc
	movq	-80(%rbp), %rcx
	movq	-72(%rbp), %rdx
	movq	-104(%rbp), %rax
	movq	%rcx, %rsi
	movq	%rax, %rdi
	call	_Z15NextTokenEqualsP5lexer13abs_stringptr
	testb	%al, %al
	setne	%al
	testb	%al, %al
	je	.L227
	.loc 6 307 0
	leaq	-160(%rbp), %rax
	movq	-112(%rbp), %rdx
	movq	-104(%rbp), %rcx
	movq	%rcx, %rsi
	movq	%rax, %rdi
	call	_Z8ParseTagP5lexerP6parser
	movq	-160(%rbp), %rax
	movq	-152(%rbp), %rdx
	movq	%rax, -64(%rbp)
	movq	%rdx, -56(%rbp)
	movq	-144(%rbp), %rax
	movq	-136(%rbp), %rdx
	movq	%rax, -48(%rbp)
	movq	%rdx, -40(%rbp)
	movq	-128(%rbp), %rax
	movq	-120(%rbp), %rdx
	movq	%rax, -32(%rbp)
	movq	%rdx, -24(%rbp)
.L227:
	.loc 6 310 0
	movq	-112(%rbp), %rdx
	movq	-104(%rbp), %rax
	movq	%rdx, %rsi
	movq	%rax, %rdi
	call	_Z13ParseTypeExprP5lexerP6parser
	movq	%rax, -88(%rbp)
	.loc 6 311 0
	cmpq	$0, -88(%rbp)
	je	.L228
	.loc 6 313 0
	movq	-112(%rbp), %rax
	movq	(%rax), %rax
	movl	$1, %edx
	movl	$72, %esi
	movq	%rax, %rdi
	call	_Z13abm_PushSize_P12memory_arenama
	movq	%rax, -96(%rbp)
	.loc 6 314 0
	movq	-96(%rbp), %rax
	leaq	8(%rax), %rdx
	movq	-96(%rbp), %rax
	movq	%rdx, 40(%rax)
	movq	-96(%rbp), %rax
	leaq	8(%rax), %rdx
	movq	-96(%rbp), %rax
	movq	%rdx, 48(%rax)
	.loc 6 315 0
	movq	-24(%rbp), %rax
	movq	-96(%rbp), %rdx
	addq	$8, %rdx
	movq	%rdx, 32(%rax)
	movq	-32(%rbp), %rax
	movq	-96(%rbp), %rdx
	movq	48(%rdx), %rdx
	movq	%rdx, 40(%rax)
	movq	-96(%rbp), %rax
	movq	48(%rax), %rax
	movq	-32(%rbp), %rdx
	movq	%rdx, 32(%rax)
	movq	-24(%rbp), %rdx
	movq	-96(%rbp), %rax
	movq	%rdx, 48(%rax)
	.loc 6 316 0
	movq	-96(%rbp), %rax
	movq	-88(%rbp), %rdx
	movq	%rdx, (%rax)
	.loc 6 317 0
	movq	-104(%rbp), %rax
	movl	$4, %esi
	movq	%rax, %rdi
	call	_Z12RequireTokenP5lexer10token_type
	testb	%al, %al
.L228:
	.loc 6 323 0
	movq	-96(%rbp), %rax
	.loc 6 324 0
	movq	-8(%rbp), %rcx
	xorq	%fs:40, %rcx
	je	.L230
	call	__stack_chk_fail@PLT
.L230:
	leave
	.cfi_def_cfa 7, 8
	ret
	.cfi_endproc
.LFE70:
	.size	_Z15ParseStructItemP5lexerP6parser, .-_Z15ParseStructItemP5lexerP6parser
	.globl	_Z14ParseEnumClassP5lexerP6parser
	.type	_Z14ParseEnumClassP5lexerP6parser, @function
_Z14ParseEnumClassP5lexerP6parser:
.LFB71:
	.loc 6 328 0
	.cfi_startproc
	pushq	%rbp
	.cfi_def_cfa_offset 16
	.cfi_offset 6, -16
	movq	%rsp, %rbp
	.cfi_def_cfa_register 6
	subq	$96, %rsp
	movq	%rdi, -88(%rbp)
	movq	%rsi, -96(%rbp)
	.loc 6 328 0
	movq	%fs:40, %rax
	movq	%rax, -8(%rbp)
	xorl	%eax, %eax
	.loc 6 329 0
	movq	$0, -80(%rbp)
	.loc 6 330 0
	leaq	-64(%rbp), %rax
	movq	-88(%rbp), %rdx
	movq	%rdx, %rsi
	movq	%rax, %rdi
	call	_Z12abl_GetTokenP5lexer
.LBB22:
	.loc 6 332 0
	movl	-64(%rbp), %eax
	cmpl	$17, %eax
	jne	.L232
.LBB23:
	.loc 6 334 0
	movq	-96(%rbp), %rax
	movq	(%rax), %rax
	movl	$1, %edx
	movl	$168, %esi
	movq	%rax, %rdi
	call	_Z13abm_PushSize_P12memory_arenama
	movq	%rax, -80(%rbp)
	.loc 6 335 0
	movq	-80(%rbp), %rax
	leaq	16(%rax), %rdx
	movq	-80(%rbp), %rax
	movq	%rdx, 48(%rax)
	movq	-80(%rbp), %rax
	leaq	16(%rax), %rdx
	movq	-80(%rbp), %rax
	movq	%rdx, 56(%rax)
	.loc 6 336 0
	movq	-80(%rbp), %rax
	leaq	64(%rax), %rdx
	movq	-80(%rbp), %rax
	movq	%rdx, 128(%rax)
	movq	-80(%rbp), %rax
	leaq	64(%rax), %rdx
	movq	-80(%rbp), %rax
	movq	%rdx, 136(%rax)
	.loc 6 338 0
	movq	-80(%rbp), %rax
	movq	-56(%rbp), %rdx
	movq	%rdx, (%rax)
	movl	-48(%rbp), %edx
	movl	%edx, 8(%rax)
.LBB24:
	.loc 6 340 0
	movq	-88(%rbp), %rax
	movl	$9, %esi
	movq	%rax, %rdi
	call	_Z12RequireTokenP5lexer10token_type
	testb	%al, %al
	setne	%al
	testb	%al, %al
	je	.L232
.L236:
.LBB25:
	.loc 6 342 0
	leaq	-32(%rbp), %rax
	movq	-88(%rbp), %rdx
	movq	%rdx, %rsi
	movq	%rax, %rdi
	call	_Z13abl_PeekTokenP5lexer
	movl	-32(%rbp), %eax
	cmpl	$10, %eax
	setne	%al
	testb	%al, %al
	je	.L234
.LBB26:
	.loc 6 344 0
	movq	-96(%rbp), %rdx
	movq	-88(%rbp), %rax
	movq	%rdx, %rsi
	movq	%rax, %rdi
	call	_Z13ParseEnumitemP5lexerP6parser
	movq	%rax, -72(%rbp)
	.loc 6 345 0
	cmpq	$0, -72(%rbp)
	je	.L235
	.loc 6 347 0
	movq	-80(%rbp), %rax
	leaq	64(%rax), %rdx
	movq	-72(%rbp), %rax
	movq	%rdx, 64(%rax)
	movq	-80(%rbp), %rax
	movq	136(%rax), %rdx
	movq	-72(%rbp), %rax
	movq	%rdx, 72(%rax)
	movq	-80(%rbp), %rax
	movq	136(%rax), %rax
	movq	-72(%rbp), %rdx
	movq	%rdx, 64(%rax)
	movq	-80(%rbp), %rax
	movq	-72(%rbp), %rdx
	movq	%rdx, 136(%rax)
	.loc 6 348 0
	movq	-80(%rbp), %rax
	movl	144(%rax), %eax
	leal	1(%rax), %edx
	movq	-80(%rbp), %rax
	movl	%edx, 144(%rax)
.L235:
	.loc 6 350 0
	movq	-88(%rbp), %rax
	movl	$5, %esi
	movq	%rax, %rdi
	call	_Z13OptionalTokenP5lexer10token_type
.LBE26:
	.loc 6 342 0
	jmp	.L236
.L234:
	.loc 6 352 0
	movq	-88(%rbp), %rax
	movl	$4, %esi
	movq	%rax, %rdi
	call	_Z12RequireTokenP5lexer10token_type
	testb	%al, %al
.L232:
.LBE25:
.LBE24:
.LBE23:
.LBE22:
	.loc 6 359 0
	movq	-80(%rbp), %rax
	.loc 6 360 0
	movq	-8(%rbp), %rcx
	xorq	%fs:40, %rcx
	je	.L238
	call	__stack_chk_fail@PLT
.L238:
	leave
	.cfi_def_cfa 7, 8
	ret
	.cfi_endproc
.LFE71:
	.size	_Z14ParseEnumClassP5lexerP6parser, .-_Z14ParseEnumClassP5lexerP6parser
	.globl	_Z11ParseStructP5lexerP6parser
	.type	_Z11ParseStructP5lexerP6parser, @function
_Z11ParseStructP5lexerP6parser:
.LFB72:
	.loc 6 364 0
	.cfi_startproc
	pushq	%rbp
	.cfi_def_cfa_offset 16
	.cfi_offset 6, -16
	movq	%rsp, %rbp
	.cfi_def_cfa_register 6
	subq	$96, %rsp
	movq	%rdi, -88(%rbp)
	movq	%rsi, -96(%rbp)
	.loc 6 364 0
	movq	%fs:40, %rax
	movq	%rax, -8(%rbp)
	xorl	%eax, %eax
	.loc 6 365 0
	movq	$0, -80(%rbp)
	.loc 6 366 0
	leaq	-64(%rbp), %rax
	movq	-88(%rbp), %rdx
	movq	%rdx, %rsi
	movq	%rax, %rdi
	call	_Z12abl_GetTokenP5lexer
.LBB27:
	.loc 6 368 0
	movl	-64(%rbp), %eax
	cmpl	$17, %eax
	jne	.L240
.LBB28:
	.loc 6 370 0
	movq	-96(%rbp), %rax
	movq	(%rax), %rax
	movl	$1, %edx
	movl	$160, %esi
	movq	%rax, %rdi
	call	_Z13abm_PushSize_P12memory_arenama
	movq	%rax, -80(%rbp)
	.loc 6 371 0
	movq	-80(%rbp), %rax
	leaq	16(%rax), %rdx
	movq	-80(%rbp), %rax
	movq	%rdx, 48(%rax)
	movq	-80(%rbp), %rax
	leaq	16(%rax), %rdx
	movq	-80(%rbp), %rax
	movq	%rdx, 56(%rax)
	.loc 6 372 0
	movq	-80(%rbp), %rax
	leaq	64(%rax), %rdx
	movq	-80(%rbp), %rax
	movq	%rdx, 120(%rax)
	movq	-80(%rbp), %rax
	leaq	64(%rax), %rdx
	movq	-80(%rbp), %rax
	movq	%rdx, 128(%rax)
	.loc 6 373 0
	movq	-80(%rbp), %rax
	movq	-56(%rbp), %rdx
	movq	%rdx, (%rax)
	movl	-48(%rbp), %edx
	movl	%edx, 8(%rax)
.LBB29:
	.loc 6 375 0
	movq	-88(%rbp), %rax
	movl	$9, %esi
	movq	%rax, %rdi
	call	_Z12RequireTokenP5lexer10token_type
	testb	%al, %al
	setne	%al
	testb	%al, %al
	je	.L240
.L244:
.LBB30:
	.loc 6 377 0
	leaq	-32(%rbp), %rax
	movq	-88(%rbp), %rdx
	movq	%rdx, %rsi
	movq	%rax, %rdi
	call	_Z13abl_PeekTokenP5lexer
	movl	-32(%rbp), %eax
	cmpl	$10, %eax
	setne	%al
	testb	%al, %al
	je	.L242
.LBB31:
	.loc 6 379 0
	movq	-96(%rbp), %rdx
	movq	-88(%rbp), %rax
	movq	%rdx, %rsi
	movq	%rax, %rdi
	call	_Z15ParseStructItemP5lexerP6parser
	movq	%rax, -72(%rbp)
	.loc 6 380 0
	cmpq	$0, -72(%rbp)
	je	.L244
	.loc 6 382 0
	movq	-80(%rbp), %rax
	leaq	64(%rax), %rdx
	movq	-72(%rbp), %rax
	movq	%rdx, 56(%rax)
	movq	-80(%rbp), %rax
	movq	128(%rax), %rdx
	movq	-72(%rbp), %rax
	movq	%rdx, 64(%rax)
	movq	-80(%rbp), %rax
	movq	128(%rax), %rax
	movq	-72(%rbp), %rdx
	movq	%rdx, 56(%rax)
	movq	-80(%rbp), %rax
	movq	-72(%rbp), %rdx
	movq	%rdx, 128(%rax)
.LBE31:
	.loc 6 377 0
	jmp	.L244
.L242:
	.loc 6 385 0
	movq	-88(%rbp), %rax
	movl	$4, %esi
	movq	%rax, %rdi
	call	_Z12RequireTokenP5lexer10token_type
	testb	%al, %al
.L240:
.LBE30:
.LBE29:
.LBE28:
.LBE27:
	.loc 6 392 0
	movq	-80(%rbp), %rax
	.loc 6 393 0
	movq	-8(%rbp), %rcx
	xorq	%fs:40, %rcx
	je	.L246
	call	__stack_chk_fail@PLT
.L246:
	leave
	.cfi_def_cfa 7, 8
	ret
	.cfi_endproc
.LFE72:
	.size	_Z11ParseStructP5lexerP6parser, .-_Z11ParseStructP5lexerP6parser
	.globl	_Z13ParseFunctionP5lexerP6parser
	.type	_Z13ParseFunctionP5lexerP6parser, @function
_Z13ParseFunctionP5lexerP6parser:
.LFB73:
	.loc 6 397 0
	.cfi_startproc
	pushq	%rbp
	.cfi_def_cfa_offset 16
	.cfi_offset 6, -16
	movq	%rsp, %rbp
	.cfi_def_cfa_register 6
	movq	%rdi, -8(%rbp)
	movq	%rsi, -16(%rbp)
	.loc 6 398 0
	movl	$0, %eax
	.loc 6 399 0
	popq	%rbp
	.cfi_def_cfa 7, 8
	ret
	.cfi_endproc
.LFE73:
	.size	_Z13ParseFunctionP5lexerP6parser, .-_Z13ParseFunctionP5lexerP6parser
	.globl	_Z8ParseTagP5lexerP6parser
	.type	_Z8ParseTagP5lexerP6parser, @function
_Z8ParseTagP5lexerP6parser:
.LFB74:
	.loc 6 403 0
	.cfi_startproc
	pushq	%rbp
	.cfi_def_cfa_offset 16
	.cfi_offset 6, -16
	movq	%rsp, %rbp
	.cfi_def_cfa_register 6
	subq	$144, %rsp
	movq	%rdi, -88(%rbp)
	movq	%rsi, -96(%rbp)
	movq	%rdx, -104(%rbp)
	.loc 6 403 0
	movq	%fs:40, %rax
	movq	%rax, -8(%rbp)
	xorl	%eax, %eax
	.loc 6 404 0
	movq	-88(%rbp), %rax
	movq	$0, (%rax)
	movq	$0, 8(%rax)
	movq	$0, 16(%rax)
	movq	$0, 24(%rax)
	movq	$0, 32(%rax)
	movq	$0, 40(%rax)
	.loc 6 405 0
	movq	-88(%rbp), %rax
	movq	-88(%rbp), %rdx
	movq	%rdx, 32(%rax)
	movq	-88(%rbp), %rax
	movq	-88(%rbp), %rdx
	movq	%rdx, 40(%rax)
.LBB32:
	.loc 6 407 0
	movq	-96(%rbp), %rax
	movl	$1, %esi
	movq	%rax, %rdi
	call	_Z12RequireTokenP5lexer10token_type
	testb	%al, %al
	setne	%al
	testb	%al, %al
	je	.L259
.LBB33:
	.loc 6 409 0
	leaq	-64(%rbp), %rax
	movq	-96(%rbp), %rdx
	movq	%rdx, %rsi
	movq	%rax, %rdi
	call	_Z12abl_GetTokenP5lexer
.L256:
	.loc 6 410 0
	movl	-64(%rbp), %eax
	cmpl	$2, %eax
	je	.L251
.LBB34:
.LBB35:
	.loc 6 412 0
	movl	-64(%rbp), %eax
	cmpl	$17, %eax
	jne	.L252
.LBB36:
	.loc 6 414 0
	movq	-104(%rbp), %rax
	movq	(%rax), %rax
	movl	$1, %edx
	movl	$48, %esi
	movq	%rax, %rdi
	call	_Z13abm_PushSize_P12memory_arenama
	movq	%rax, -72(%rbp)
	.loc 6 415 0
	movq	-72(%rbp), %rax
	movq	-56(%rbp), %rdx
	movq	%rdx, (%rax)
	movl	-48(%rbp), %edx
	movl	%edx, 8(%rax)
.LBB37:
	.loc 6 417 0
	movq	-96(%rbp), %rax
	movl	$3, %esi
	movq	%rax, %rdi
	call	_Z13OptionalTokenP5lexer10token_type
	testb	%al, %al
	setne	%al
	testb	%al, %al
	je	.L253
.LBB38:
	.loc 6 419 0
	leaq	-32(%rbp), %rax
	movq	-96(%rbp), %rdx
	movq	%rdx, %rsi
	movq	%rax, %rdi
	call	_Z12abl_GetTokenP5lexer
	.loc 6 420 0
	movl	-32(%rbp), %eax
	cmpl	$16, %eax
	je	.L254
	.loc 6 421 0 discriminator 1
	movl	-32(%rbp), %eax
	.loc 6 420 0 discriminator 1
	cmpl	$17, %eax
	jne	.L253
.L254:
	.loc 6 423 0
	movq	-72(%rbp), %rax
	movq	-24(%rbp), %rdx
	movq	%rdx, 16(%rax)
	movl	-16(%rbp), %edx
	movl	%edx, 24(%rax)
.L253:
.LBE38:
.LBE37:
	.loc 6 427 0
	movq	-96(%rbp), %rax
	movl	$5, %esi
	movq	%rax, %rdi
	call	_Z13OptionalTokenP5lexer10token_type
	.loc 6 428 0
	movq	-72(%rbp), %rax
	movq	-88(%rbp), %rdx
	movq	%rdx, 32(%rax)
	movq	-88(%rbp), %rax
	movq	40(%rax), %rdx
	movq	-72(%rbp), %rax
	movq	%rdx, 40(%rax)
	movq	-88(%rbp), %rax
	movq	40(%rax), %rax
	movq	-72(%rbp), %rdx
	movq	%rdx, 32(%rax)
	movq	-88(%rbp), %rax
	movq	-72(%rbp), %rdx
	movq	%rdx, 40(%rax)
.L252:
.LBE36:
.LBE35:
	.loc 6 431 0
	leaq	-144(%rbp), %rax
	movq	-96(%rbp), %rdx
	movq	%rdx, %rsi
	movq	%rax, %rdi
	call	_Z12abl_GetTokenP5lexer
	movq	-144(%rbp), %rax
	movq	-136(%rbp), %rdx
	movq	%rax, -64(%rbp)
	movq	%rdx, -56(%rbp)
	movq	-128(%rbp), %rax
	movq	%rax, -48(%rbp)
.LBE34:
	.loc 6 410 0
	jmp	.L256
.L251:
	.loc 6 434 0
	movq	-96(%rbp), %rax
	movl	$4, %esi
	movq	%rax, %rdi
	call	_Z13OptionalTokenP5lexer10token_type
	.loc 6 435 0
	movq	-96(%rbp), %rax
	movl	$5, %esi
	movq	%rax, %rdi
	call	_Z13OptionalTokenP5lexer10token_type
.L259:
.LBE33:
.LBE32:
	.loc 6 438 0
	nop
	.loc 6 439 0
	movq	-88(%rbp), %rax
	movq	-8(%rbp), %rcx
	xorq	%fs:40, %rcx
	je	.L258
	call	__stack_chk_fail@PLT
.L258:
	leave
	.cfi_def_cfa 7, 8
	ret
	.cfi_endproc
.LFE74:
	.size	_Z8ParseTagP5lexerP6parser, .-_Z8ParseTagP5lexerP6parser
	.section	.rodata
.LC4:
	.string	"struct"
.LC5:
	.string	"union"
.LC6:
	.string	"enum"
.LC7:
	.string	"class"
	.text
	.globl	_Z15ParseTaggedExprP5lexerP6parser5token
	.type	_Z15ParseTaggedExprP5lexerP6parser5token, @function
_Z15ParseTaggedExprP5lexerP6parser5token:
.LFB75:
	.loc 6 443 0
	.cfi_startproc
	pushq	%rbp
	.cfi_def_cfa_offset 16
	.cfi_offset 6, -16
	movq	%rsp, %rbp
	.cfi_def_cfa_register 6
	subq	$144, %rsp
	movq	%rdi, -136(%rbp)
	movq	%rsi, -144(%rbp)
	.loc 6 443 0
	movq	%fs:40, %rax
	movq	%rax, -8(%rbp)
	xorl	%eax, %eax
	.loc 6 444 0
	leaq	-64(%rbp), %rax
	movq	-144(%rbp), %rdx
	movq	-136(%rbp), %rcx
	movq	%rcx, %rsi
	movq	%rax, %rdi
	call	_Z8ParseTagP5lexerP6parser
.LBB39:
	.loc 6 446 0
	leaq	-96(%rbp), %rax
	leaq	.LC4(%rip), %rsi
	movq	%rax, %rdi
	call	_ZN13abs_stringptrC1EPKc
	movq	-96(%rbp), %rcx
	movq	-88(%rbp), %rdx
	movq	-136(%rbp), %rax
	movq	%rcx, %rsi
	movq	%rax, %rdi
	call	_Z15NextTokenEqualsP5lexer13abs_stringptr
	testb	%al, %al
	jne	.L261
	.loc 6 446 0 is_stmt 0 discriminator 6
	leaq	-80(%rbp), %rax
	leaq	.LC5(%rip), %rsi
	movq	%rax, %rdi
	call	_ZN13abs_stringptrC1EPKc
	movq	-80(%rbp), %rcx
	movq	-72(%rbp), %rdx
	movq	-136(%rbp), %rax
	movq	%rcx, %rsi
	movq	%rax, %rdi
	call	_Z15NextTokenEqualsP5lexer13abs_stringptr
	testb	%al, %al
	je	.L262
.L261:
	.loc 6 446 0 discriminator 11
	movl	$1, %eax
	jmp	.L263
.L262:
	.loc 6 446 0 discriminator 12
	movl	$0, %eax
.L263:
	.loc 6 446 0 discriminator 14
	testb	%al, %al
	je	.L264
.LBB40:
	.loc 6 448 0 is_stmt 1
	movq	-144(%rbp), %rdx
	movq	-136(%rbp), %rax
	movq	%rdx, %rsi
	movq	%rax, %rdi
	call	_Z11ParseStructP5lexerP6parser
	movq	%rax, -104(%rbp)
	.loc 6 449 0
	cmpq	$0, -104(%rbp)
	je	.L272
	.loc 6 451 0
	movq	-24(%rbp), %rax
	movq	-104(%rbp), %rdx
	addq	$16, %rdx
	movq	%rdx, 32(%rax)
	movq	-32(%rbp), %rax
	movq	-104(%rbp), %rdx
	movq	56(%rdx), %rdx
	movq	%rdx, 40(%rax)
	movq	-104(%rbp), %rax
	movq	56(%rax), %rax
	movq	-32(%rbp), %rdx
	movq	%rdx, 32(%rax)
	movq	-24(%rbp), %rdx
	movq	-104(%rbp), %rax
	movq	%rdx, 56(%rax)
	.loc 6 452 0
	movq	-144(%rbp), %rax
	leaq	8(%rax), %rdx
	movq	-104(%rbp), %rax
	movq	%rdx, 144(%rax)
	movq	-144(%rbp), %rax
	movq	160(%rax), %rdx
	movq	-104(%rbp), %rax
	movq	%rdx, 152(%rax)
	movq	-144(%rbp), %rax
	movq	160(%rax), %rax
	movq	-104(%rbp), %rdx
	movq	%rdx, 144(%rax)
	movq	-144(%rbp), %rax
	movq	-104(%rbp), %rdx
	movq	%rdx, 160(%rax)
.LBE40:
.LBE39:
	.loc 6 476 0
	jmp	.L272
.L264:
.LBB47:
.LBB41:
.LBB42:
	.loc 6 455 0
	leaq	-96(%rbp), %rax
	leaq	.LC6(%rip), %rsi
	movq	%rax, %rdi
	call	_ZN13abs_stringptrC1EPKc
	movq	-96(%rbp), %rcx
	movq	-88(%rbp), %rdx
	movq	-136(%rbp), %rax
	movq	%rcx, %rsi
	movq	%rax, %rdi
	call	_Z15NextTokenEqualsP5lexer13abs_stringptr
	testb	%al, %al
	je	.L267
	.loc 6 455 0 is_stmt 0 discriminator 5
	leaq	-80(%rbp), %rax
	leaq	.LC7(%rip), %rsi
	movq	%rax, %rdi
	call	_ZN13abs_stringptrC1EPKc
	movq	-80(%rbp), %rcx
	movq	-72(%rbp), %rdx
	movq	-136(%rbp), %rax
	movq	%rcx, %rsi
	movq	%rax, %rdi
	call	_Z15NextTokenEqualsP5lexer13abs_stringptr
	testb	%al, %al
	je	.L267
	.loc 6 455 0 discriminator 11
	movl	$1, %eax
	jmp	.L268
.L267:
	.loc 6 455 0 discriminator 12
	movl	$0, %eax
.L268:
	.loc 6 455 0 discriminator 14
	testb	%al, %al
	je	.L269
.LBB43:
	.loc 6 457 0 is_stmt 1
	movq	-144(%rbp), %rdx
	movq	-136(%rbp), %rax
	movq	%rdx, %rsi
	movq	%rax, %rdi
	call	_Z14ParseEnumClassP5lexerP6parser
	movq	%rax, -112(%rbp)
	.loc 6 458 0
	cmpq	$0, -112(%rbp)
	je	.L272
	.loc 6 460 0
	movq	-24(%rbp), %rax
	movq	-112(%rbp), %rdx
	addq	$16, %rdx
	movq	%rdx, 32(%rax)
	movq	-32(%rbp), %rax
	movq	-112(%rbp), %rdx
	movq	56(%rdx), %rdx
	movq	%rdx, 40(%rax)
	movq	-112(%rbp), %rax
	movq	56(%rax), %rax
	movq	-32(%rbp), %rdx
	movq	%rdx, 32(%rax)
	movq	-24(%rbp), %rdx
	movq	-112(%rbp), %rax
	movq	%rdx, 56(%rax)
	.loc 6 461 0
	movq	-144(%rbp), %rax
	leaq	168(%rax), %rdx
	movq	-112(%rbp), %rax
	movq	%rdx, 152(%rax)
	movq	-144(%rbp), %rax
	movq	328(%rax), %rdx
	movq	-112(%rbp), %rax
	movq	%rdx, 160(%rax)
	movq	-144(%rbp), %rax
	movq	328(%rax), %rax
	movq	-112(%rbp), %rdx
	movq	%rdx, 152(%rax)
	movq	-144(%rbp), %rax
	movq	-112(%rbp), %rdx
	movq	%rdx, 328(%rax)
.LBE43:
.LBE42:
.LBE41:
.LBE47:
	.loc 6 476 0
	jmp	.L272
.L269:
.LBB48:
.LBB46:
.LBB45:
.LBB44:
	.loc 6 467 0
	movq	-144(%rbp), %rdx
	movq	-136(%rbp), %rax
	movq	%rdx, %rsi
	movq	%rax, %rdi
	call	_Z13ParseFunctionP5lexerP6parser
	movq	%rax, -120(%rbp)
	.loc 6 468 0
	cmpq	$0, -120(%rbp)
	je	.L272
	.loc 6 470 0
	movq	-24(%rbp), %rax
	movq	-120(%rbp), %rdx
	addq	$16, %rdx
	movq	%rdx, 32(%rax)
	movq	-32(%rbp), %rax
	movq	-120(%rbp), %rdx
	movq	56(%rdx), %rdx
	movq	%rdx, 40(%rax)
	movq	-120(%rbp), %rax
	movq	56(%rax), %rax
	movq	-32(%rbp), %rdx
	movq	%rdx, 32(%rax)
	movq	-24(%rbp), %rdx
	movq	-120(%rbp), %rax
	movq	%rdx, 56(%rax)
	.loc 6 471 0
	movq	-144(%rbp), %rax
	leaq	336(%rax), %rdx
	movq	-120(%rbp), %rax
	movq	%rdx, 136(%rax)
	movq	-144(%rbp), %rax
	movq	480(%rax), %rdx
	movq	-120(%rbp), %rax
	movq	%rdx, 144(%rax)
	movq	-144(%rbp), %rax
	movq	480(%rax), %rax
	movq	-120(%rbp), %rdx
	movq	%rdx, 136(%rax)
	movq	-144(%rbp), %rax
	movq	-120(%rbp), %rdx
	movq	%rdx, 480(%rax)
.L272:
.LBE44:
.LBE45:
.LBE46:
.LBE48:
	.loc 6 476 0
	nop
	movq	-8(%rbp), %rax
	xorq	%fs:40, %rax
	je	.L271
	call	__stack_chk_fail@PLT
.L271:
	leave
	.cfi_def_cfa 7, 8
	ret
	.cfi_endproc
.LFE75:
	.size	_Z15ParseTaggedExprP5lexerP6parser5token, .-_Z15ParseTaggedExprP5lexerP6parser5token
	.section	.rodata
.LC8:
	.string	"STRUCT"
.LC9:
	.string	"ENUM"
.LC10:
	.string	"UNION"
.LC11:
	.string	"CLASS"
	.text
	.globl	_Z20ParseStateMachineDefP5lexerP6parser5token
	.type	_Z20ParseStateMachineDefP5lexerP6parser5token, @function
_Z20ParseStateMachineDefP5lexerP6parser5token:
.LFB76:
	.loc 6 480 0
	.cfi_startproc
	pushq	%rbp
	.cfi_def_cfa_offset 16
	.cfi_offset 6, -16
	movq	%rsp, %rbp
	.cfi_def_cfa_register 6
	subq	$144, %rsp
	movq	%rdi, -104(%rbp)
	movq	%rsi, -112(%rbp)
	.loc 6 480 0
	movq	%fs:40, %rax
	movq	%rax, -8(%rbp)
	xorl	%eax, %eax
.LBB49:
	.loc 6 481 0
	movq	-104(%rbp), %rax
	movl	$1, %esi
	movq	%rax, %rdi
	call	_Z12RequireTokenP5lexer10token_type
	testb	%al, %al
	setne	%al
	testb	%al, %al
	je	.L284
.LBB50:
	.loc 6 483 0
	leaq	-64(%rbp), %rax
	movq	-104(%rbp), %rdx
	movq	%rdx, %rsi
	movq	%rax, %rdi
	call	_Z12abl_GetTokenP5lexer
.LBB51:
	.loc 6 484 0
	movl	-64(%rbp), %eax
	cmpl	$17, %eax
	jne	.L284
.LBB52:
	.loc 6 486 0
	movq	-112(%rbp), %rax
	movq	(%rax), %rax
	movl	$1, %edx
	movl	$128, %esi
	movq	%rax, %rdi
	call	_Z13abm_PushSize_P12memory_arenama
	movq	%rax, -80(%rbp)
	.loc 6 487 0
	movq	-80(%rbp), %rax
	leaq	48(%rax), %rdx
	movq	-80(%rbp), %rax
	movq	%rdx, 96(%rax)
	movq	-80(%rbp), %rax
	leaq	48(%rax), %rdx
	movq	-80(%rbp), %rax
	movq	%rdx, 104(%rax)
	.loc 6 488 0
	movq	-80(%rbp), %rax
	movq	-56(%rbp), %rdx
	movq	%rdx, (%rax)
	movl	-48(%rbp), %edx
	movl	%edx, 8(%rax)
	.loc 6 489 0
	movq	-104(%rbp), %rax
	movl	$5, %esi
	movq	%rax, %rdi
	call	_Z12RequireTokenP5lexer10token_type
	.loc 6 490 0
	leaq	-144(%rbp), %rax
	movq	-104(%rbp), %rdx
	movq	%rdx, %rsi
	movq	%rax, %rdi
	call	_Z12abl_GetTokenP5lexer
	movq	-144(%rbp), %rax
	movq	-136(%rbp), %rdx
	movq	%rax, -64(%rbp)
	movq	%rdx, -56(%rbp)
	movq	-128(%rbp), %rax
	movq	%rax, -48(%rbp)
	.loc 6 491 0
	movq	-80(%rbp), %rax
	movq	-56(%rbp), %rdx
	movq	%rdx, 16(%rax)
	movl	-48(%rbp), %edx
	movl	%edx, 24(%rax)
	.loc 6 493 0
	movq	-104(%rbp), %rax
	movl	$5, %esi
	movq	%rax, %rdi
	call	_Z12RequireTokenP5lexer10token_type
	.loc 6 494 0
	leaq	-144(%rbp), %rax
	movq	-104(%rbp), %rdx
	movq	%rdx, %rsi
	movq	%rax, %rdi
	call	_Z12abl_GetTokenP5lexer
	movq	-144(%rbp), %rax
	movq	-136(%rbp), %rdx
	movq	%rax, -64(%rbp)
	movq	%rdx, -56(%rbp)
	movq	-128(%rbp), %rax
	movq	%rax, -48(%rbp)
	.loc 6 495 0
	movq	-80(%rbp), %rax
	movq	-56(%rbp), %rdx
	movq	%rdx, 32(%rax)
	movl	-48(%rbp), %edx
	movl	%edx, 40(%rax)
.L282:
	.loc 6 497 0
	movq	-104(%rbp), %rax
	movl	$5, %esi
	movq	%rax, %rdi
	call	_Z13OptionalTokenP5lexer10token_type
	testb	%al, %al
	setne	%al
	testb	%al, %al
	je	.L276
.LBB53:
.LBB54:
	.loc 6 499 0
	leaq	-32(%rbp), %rax
	movq	-104(%rbp), %rdx
	movq	%rdx, %rsi
	movq	%rax, %rdi
	call	_Z13abl_PeekTokenP5lexer
	movl	-32(%rbp), %eax
	cmpl	$17, %eax
	sete	%al
	testb	%al, %al
	je	.L282
.LBB55:
	.loc 6 501 0
	movl	$0, -84(%rbp)
	.loc 6 503 0
	leaq	-32(%rbp), %rax
	leaq	.LC8(%rip), %rsi
	movq	%rax, %rdi
	call	_ZN13abs_stringptrC1EPKc
	movq	-32(%rbp), %rcx
	movq	-24(%rbp), %rdx
	movq	-104(%rbp), %rax
	movq	%rcx, %rsi
	movq	%rax, %rdi
	call	_Z15NextTokenEqualsP5lexer13abs_stringptr
	testb	%al, %al
	setne	%al
	testb	%al, %al
	je	.L278
	.loc 6 505 0
	movl	$1, -84(%rbp)
	jmp	.L279
.L278:
	.loc 6 507 0
	leaq	-32(%rbp), %rax
	leaq	.LC9(%rip), %rsi
	movq	%rax, %rdi
	call	_ZN13abs_stringptrC1EPKc
	movq	-32(%rbp), %rcx
	movq	-24(%rbp), %rdx
	movq	-104(%rbp), %rax
	movq	%rcx, %rsi
	movq	%rax, %rdi
	call	_Z15NextTokenEqualsP5lexer13abs_stringptr
	testb	%al, %al
	setne	%al
	testb	%al, %al
	je	.L280
	.loc 6 509 0
	movl	$4, -84(%rbp)
	jmp	.L279
.L280:
	.loc 6 511 0
	leaq	-32(%rbp), %rax
	leaq	.LC10(%rip), %rsi
	movq	%rax, %rdi
	call	_ZN13abs_stringptrC1EPKc
	movq	-32(%rbp), %rcx
	movq	-24(%rbp), %rdx
	movq	-104(%rbp), %rax
	movq	%rcx, %rsi
	movq	%rax, %rdi
	call	_Z15NextTokenEqualsP5lexer13abs_stringptr
	testb	%al, %al
	setne	%al
	testb	%al, %al
	je	.L281
	.loc 6 513 0
	movl	$2, -84(%rbp)
	jmp	.L279
.L281:
	.loc 6 515 0
	leaq	-32(%rbp), %rax
	leaq	.LC11(%rip), %rsi
	movq	%rax, %rdi
	call	_ZN13abs_stringptrC1EPKc
	movq	-32(%rbp), %rcx
	movq	-24(%rbp), %rdx
	movq	-104(%rbp), %rax
	movq	%rcx, %rsi
	movq	%rax, %rdi
	call	_Z15NextTokenEqualsP5lexer13abs_stringptr
	testb	%al, %al
	setne	%al
	testb	%al, %al
	je	.L279
	.loc 6 517 0
	movl	$3, -84(%rbp)
.L279:
	.loc 6 520 0
	movq	-112(%rbp), %rdx
	movq	-104(%rbp), %rax
	movq	%rdx, %rsi
	movq	%rax, %rdi
	call	_Z13ParseTypeExprP5lexerP6parser
	movq	%rax, -72(%rbp)
	.loc 6 521 0
	movq	-72(%rbp), %rax
	movl	-84(%rbp), %edx
	movl	%edx, 40(%rax)
	.loc 6 523 0
	movq	-80(%rbp), %rax
	leaq	48(%rax), %rdx
	movq	-72(%rbp), %rax
	movq	%rdx, 48(%rax)
	movq	-80(%rbp), %rax
	movq	104(%rax), %rdx
	movq	-72(%rbp), %rax
	movq	%rdx, 56(%rax)
	movq	-80(%rbp), %rax
	movq	104(%rax), %rax
	movq	-72(%rbp), %rdx
	movq	%rdx, 48(%rax)
	movq	-80(%rbp), %rax
	movq	-72(%rbp), %rdx
	movq	%rdx, 104(%rax)
.LBE55:
.LBE54:
.LBE53:
	.loc 6 497 0
	jmp	.L282
.L276:
	.loc 6 527 0
	movq	-104(%rbp), %rax
	movl	$2, %esi
	movq	%rax, %rdi
	call	_Z12RequireTokenP5lexer10token_type
	testb	%al, %al
	.loc 6 532 0
	movq	-104(%rbp), %rax
	movl	$4, %esi
	movq	%rax, %rdi
	call	_Z13OptionalTokenP5lexer10token_type
	.loc 6 533 0
	movq	-112(%rbp), %rax
	leaq	488(%rax), %rdx
	movq	-80(%rbp), %rax
	movq	%rdx, 112(%rax)
	movq	-112(%rbp), %rax
	movq	608(%rax), %rdx
	movq	-80(%rbp), %rax
	movq	%rdx, 120(%rax)
	movq	-112(%rbp), %rax
	movq	608(%rax), %rax
	movq	-80(%rbp), %rdx
	movq	%rdx, 112(%rax)
	movq	-112(%rbp), %rax
	movq	-80(%rbp), %rdx
	movq	%rdx, 608(%rax)
.L284:
.LBE52:
.LBE51:
.LBE50:
.LBE49:
	.loc 6 536 0
	nop
	movq	-8(%rbp), %rax
	xorq	%fs:40, %rax
	je	.L283
	call	__stack_chk_fail@PLT
.L283:
	leave
	.cfi_def_cfa 7, 8
	ret
	.cfi_endproc
.LFE76:
	.size	_Z20ParseStateMachineDefP5lexerP6parser5token, .-_Z20ParseStateMachineDefP5lexerP6parser5token
	.globl	_Z20ParseDefinedFunctionP5lexerP6parser5token
	.type	_Z20ParseDefinedFunctionP5lexerP6parser5token, @function
_Z20ParseDefinedFunctionP5lexerP6parser5token:
.LFB77:
	.loc 6 540 0
	.cfi_startproc
	pushq	%rbp
	.cfi_def_cfa_offset 16
	.cfi_offset 6, -16
	movq	%rsp, %rbp
	.cfi_def_cfa_register 6
	addq	$-128, %rsp
	movq	%rdi, -120(%rbp)
	movq	%rsi, -128(%rbp)
	.loc 6 540 0
	movq	%fs:40, %rax
	movq	%rax, -8(%rbp)
	xorl	%eax, %eax
	.loc 6 541 0
	movq	$0, -64(%rbp)
	movq	$0, -56(%rbp)
	movq	$0, -48(%rbp)
	movq	$0, -40(%rbp)
	movq	$0, -32(%rbp)
	movq	$0, -24(%rbp)
	.loc 6 542 0
	movb	$0, -105(%rbp)
	.loc 6 544 0
	movq	24(%rbp), %rax
	movq	%rax, -64(%rbp)
	movl	32(%rbp), %eax
	movl	%eax, -56(%rbp)
.LBB56:
	.loc 6 545 0
	movq	-120(%rbp), %rax
	movl	$1, %esi
	movq	%rax, %rdi
	call	_Z12RequireTokenP5lexer10token_type
	testb	%al, %al
	setne	%al
	testb	%al, %al
	je	.L286
.LBB57:
	.loc 6 547 0
	leaq	-96(%rbp), %rax
	movq	-120(%rbp), %rdx
	movq	%rdx, %rsi
	movq	%rax, %rdi
	call	_Z12abl_GetTokenP5lexer
	.loc 6 548 0
	movl	-96(%rbp), %eax
	cmpl	$17, %eax
	jne	.L287
	.loc 6 549 0
	movq	-120(%rbp), %rax
	movl	$2, %esi
	movq	%rax, %rdi
	call	_Z12RequireTokenP5lexer10token_type
	.loc 6 548 0
	testb	%al, %al
	je	.L287
	.loc 6 548 0 is_stmt 0 discriminator 2
	movl	$1, %eax
	jmp	.L288
.L287:
	.loc 6 548 0 discriminator 3
	movl	$0, %eax
.L288:
	.loc 6 548 0 discriminator 5
	testb	%al, %al
	je	.L286
	.loc 6 551 0 is_stmt 1
	movq	-88(%rbp), %rax
	movq	%rax, -48(%rbp)
	movl	-80(%rbp), %eax
	movl	%eax, -40(%rbp)
	.loc 6 552 0
	movb	$1, -105(%rbp)
.L286:
.LBE57:
.LBE56:
.LBB58:
	.loc 6 561 0
	cmpb	$0, -105(%rbp)
	je	.L292
.LBB59:
	.loc 6 563 0
	movq	-128(%rbp), %rax
	movq	(%rax), %rax
	movl	$1, %edx
	movl	$48, %esi
	movq	%rax, %rdi
	call	_Z13abm_PushSize_P12memory_arenama
	movq	%rax, -104(%rbp)
	.loc 6 564 0
	movq	-104(%rbp), %rcx
	movq	-64(%rbp), %rax
	movq	-56(%rbp), %rdx
	movq	%rax, (%rcx)
	movq	%rdx, 8(%rcx)
	movq	-48(%rbp), %rax
	movq	-40(%rbp), %rdx
	movq	%rax, 16(%rcx)
	movq	%rdx, 24(%rcx)
	movq	-32(%rbp), %rax
	movq	-24(%rbp), %rdx
	movq	%rax, 32(%rcx)
	movq	%rdx, 40(%rcx)
	.loc 6 565 0
	movq	-128(%rbp), %rax
	leaq	616(%rax), %rdx
	movq	-104(%rbp), %rax
	movq	%rdx, 32(%rax)
	movq	-128(%rbp), %rax
	movq	656(%rax), %rdx
	movq	-104(%rbp), %rax
	movq	%rdx, 40(%rax)
	movq	-128(%rbp), %rax
	movq	656(%rax), %rax
	movq	-104(%rbp), %rdx
	movq	%rdx, 32(%rax)
	movq	-128(%rbp), %rax
	movq	-104(%rbp), %rdx
	movq	%rdx, 656(%rax)
.L292:
.LBE59:
.LBE58:
	.loc 6 567 0
	nop
	movq	-8(%rbp), %rax
	xorq	%fs:40, %rax
	je	.L291
	call	__stack_chk_fail@PLT
.L291:
	leave
	.cfi_def_cfa 7, 8
	ret
	.cfi_endproc
.LFE77:
	.size	_Z20ParseDefinedFunctionP5lexerP6parser5token, .-_Z20ParseDefinedFunctionP5lexerP6parser5token
	.section	.text._Z16isDefineFunctionP5lexer5token,"axG",@progbits,_Z16isDefineFunctionP5lexer5token,comdat
	.weak	_Z16isDefineFunctionP5lexer5token
	.type	_Z16isDefineFunctionP5lexer5token, @function
_Z16isDefineFunctionP5lexer5token:
.LFB78:
	.loc 6 571 0
	.cfi_startproc
	pushq	%rbp
	.cfi_def_cfa_offset 16
	.cfi_offset 6, -16
	movq	%rsp, %rbp
	.cfi_def_cfa_register 6
	addq	$-128, %rsp
	movq	%rdi, -120(%rbp)
	.loc 6 571 0
	movq	%fs:40, %rax
	movq	%rax, -8(%rbp)
	xorl	%eax, %eax
	.loc 6 572 0
	movq	-120(%rbp), %rax
	movq	(%rax), %rax
	movq	%rax, -104(%rbp)
	.loc 6 575 0
	movl	16(%rbp), %eax
	.loc 6 577 0
	cmpl	$17, %eax
	jne	.L294
	.loc 6 576 0
	leaq	-96(%rbp), %rax
	movq	-120(%rbp), %rdx
	movq	%rdx, %rsi
	movq	%rax, %rdi
	call	_Z12abl_GetTokenP5lexer
	movl	-96(%rbp), %eax
	.loc 6 575 0
	cmpl	$1, %eax
	jne	.L294
	.loc 6 577 0
	leaq	-64(%rbp), %rax
	movq	-120(%rbp), %rdx
	movq	%rdx, %rsi
	movq	%rax, %rdi
	call	_Z12abl_GetTokenP5lexer
	movl	-64(%rbp), %eax
	.loc 6 576 0
	cmpl	$17, %eax
	jne	.L294
	.loc 6 578 0
	leaq	-32(%rbp), %rax
	movq	-120(%rbp), %rdx
	movq	%rdx, %rsi
	movq	%rax, %rdi
	call	_Z12abl_GetTokenP5lexer
	movl	-32(%rbp), %eax
	.loc 6 577 0
	cmpl	$2, %eax
	jne	.L294
	.loc 6 577 0 is_stmt 0 discriminator 3
	movl	$1, %eax
	jmp	.L295
.L294:
	.loc 6 577 0 discriminator 4
	movl	$0, %eax
.L295:
	.loc 6 578 0 is_stmt 1
	movb	%al, -105(%rbp)
	.loc 6 580 0
	movq	-120(%rbp), %rax
	movq	-104(%rbp), %rdx
	movq	%rdx, (%rax)
	.loc 6 582 0
	movzbl	-105(%rbp), %eax
	.loc 6 583 0
	movq	-8(%rbp), %rcx
	xorq	%fs:40, %rcx
	je	.L297
	call	__stack_chk_fail@PLT
.L297:
	leave
	.cfi_def_cfa 7, 8
	ret
	.cfi_endproc
.LFE78:
	.size	_Z16isDefineFunctionP5lexer5token, .-_Z16isDefineFunctionP5lexer5token
	.section	.rodata
.LC12:
	.string	"STATEMACHINE"
	.text
	.globl	_Z9ParseExprP5lexerP6parser
	.type	_Z9ParseExprP5lexerP6parser, @function
_Z9ParseExprP5lexerP6parser:
.LFB79:
	.loc 6 587 0
	.cfi_startproc
	pushq	%rbp
	.cfi_def_cfa_offset 16
	.cfi_offset 6, -16
	movq	%rsp, %rbp
	.cfi_def_cfa_register 6
	subq	$80, %rsp
	movq	%rdi, -72(%rbp)
	movq	%rsi, -80(%rbp)
	.loc 6 587 0
	movq	%fs:40, %rax
	movq	%rax, -8(%rbp)
	xorl	%eax, %eax
	.loc 6 588 0
	movb	$0, -49(%rbp)
.L307:
	.loc 6 589 0
	cmpb	$0, -49(%rbp)
	jne	.L309
.LBB60:
	.loc 6 591 0
	leaq	-32(%rbp), %rax
	movq	-72(%rbp), %rdx
	movq	%rdx, %rsi
	movq	%rax, %rdi
	call	_Z12abl_GetTokenP5lexer
	.loc 6 592 0
	movl	-32(%rbp), %eax
	cmpl	$17, %eax
	je	.L301
	cmpl	$19, %eax
	je	.L302
	.loc 6 618 0
	jmp	.L306
.L301:
	.loc 6 596 0
	leaq	-48(%rbp), %rax
	leaq	.LC2(%rip), %rsi
	movq	%rax, %rdi
	call	_ZN13abs_stringptrC1EPKc
	movq	-48(%rbp), %rdx
	movq	-40(%rbp), %rax
	subq	$8, %rsp
	pushq	-16(%rbp)
	pushq	-24(%rbp)
	pushq	-32(%rbp)
	movq	%rdx, %rdi
	movq	%rax, %rsi
	call	_Z15abl_TokenEquals5token13abs_stringptr
	addq	$32, %rsp
	testb	%al, %al
	setne	%al
	testb	%al, %al
	je	.L303
	.loc 6 598 0
	movq	-80(%rbp), %rdx
	movq	-72(%rbp), %rax
	subq	$8, %rsp
	pushq	-16(%rbp)
	pushq	-24(%rbp)
	pushq	-32(%rbp)
	movq	%rdx, %rsi
	movq	%rax, %rdi
	call	_Z15ParseTaggedExprP5lexerP6parser5token
	addq	$32, %rsp
	.loc 6 609 0
	jmp	.L310
.L303:
	.loc 6 600 0
	leaq	-48(%rbp), %rax
	leaq	.LC12(%rip), %rsi
	movq	%rax, %rdi
	call	_ZN13abs_stringptrC1EPKc
	movq	-48(%rbp), %rdx
	movq	-40(%rbp), %rax
	subq	$8, %rsp
	pushq	-16(%rbp)
	pushq	-24(%rbp)
	pushq	-32(%rbp)
	movq	%rdx, %rdi
	movq	%rax, %rsi
	call	_Z15abl_TokenEquals5token13abs_stringptr
	addq	$32, %rsp
	testb	%al, %al
	setne	%al
	testb	%al, %al
	je	.L305
	.loc 6 602 0
	movq	-80(%rbp), %rdx
	movq	-72(%rbp), %rax
	subq	$8, %rsp
	pushq	-16(%rbp)
	pushq	-24(%rbp)
	pushq	-32(%rbp)
	movq	%rdx, %rsi
	movq	%rax, %rdi
	call	_Z20ParseStateMachineDefP5lexerP6parser5token
	addq	$32, %rsp
	.loc 6 609 0
	jmp	.L310
.L305:
	.loc 6 604 0
	movq	-72(%rbp), %rax
	subq	$8, %rsp
	pushq	-16(%rbp)
	pushq	-24(%rbp)
	pushq	-32(%rbp)
	movq	%rax, %rdi
	call	_Z16isDefineFunctionP5lexer5token
	addq	$32, %rsp
	testb	%al, %al
	setne	%al
	testb	%al, %al
	je	.L310
	.loc 6 606 0
	movq	-80(%rbp), %rdx
	movq	-72(%rbp), %rax
	subq	$8, %rsp
	pushq	-16(%rbp)
	pushq	-24(%rbp)
	pushq	-32(%rbp)
	movq	%rdx, %rsi
	movq	%rax, %rdi
	call	_Z20ParseDefinedFunctionP5lexerP6parser5token
	addq	$32, %rsp
	.loc 6 609 0
	jmp	.L310
.L302:
	.loc 6 613 0
	movb	$1, -49(%rbp)
	.loc 6 614 0
	jmp	.L306
.L310:
	.loc 6 609 0
	nop
.L306:
.LBE60:
	.loc 6 589 0 discriminator 1
	jmp	.L307
.L309:
	.loc 6 621 0
	nop
	movq	-8(%rbp), %rax
	xorq	%fs:40, %rax
	je	.L308
	call	__stack_chk_fail@PLT
.L308:
	leave
	.cfi_def_cfa 7, 8
	ret
	.cfi_endproc
.LFE79:
	.size	_Z9ParseExprP5lexerP6parser, .-_Z9ParseExprP5lexerP6parser
	.globl	_Z9ParseInitP12memory_arena
	.type	_Z9ParseInitP12memory_arena, @function
_Z9ParseInitP12memory_arena:
.LFB80:
	.loc 6 625 0
	.cfi_startproc
	pushq	%rbp
	.cfi_def_cfa_offset 16
	.cfi_offset 6, -16
	movq	%rsp, %rbp
	.cfi_def_cfa_register 6
	subq	$24, %rsp
	movq	%rdi, -24(%rbp)
	.loc 6 626 0
	movq	-24(%rbp), %rax
	movl	$1, %edx
	movl	$664, %esi
	movq	%rax, %rdi
	call	_Z13abm_PushSize_P12memory_arenama
	movq	%rax, -8(%rbp)
	.loc 6 627 0
	movq	-8(%rbp), %rax
	movq	-24(%rbp), %rdx
	movq	%rdx, (%rax)
	.loc 6 628 0
	movq	-8(%rbp), %rax
	leaq	8(%rax), %rdx
	movq	-8(%rbp), %rax
	movq	%rdx, 152(%rax)
	movq	-8(%rbp), %rax
	leaq	8(%rax), %rdx
	movq	-8(%rbp), %rax
	movq	%rdx, 160(%rax)
	.loc 6 629 0
	movq	-8(%rbp), %rax
	leaq	168(%rax), %rdx
	movq	-8(%rbp), %rax
	movq	%rdx, 320(%rax)
	movq	-8(%rbp), %rax
	leaq	168(%rax), %rdx
	movq	-8(%rbp), %rax
	movq	%rdx, 328(%rax)
	.loc 6 630 0
	movq	-8(%rbp), %rax
	leaq	336(%rax), %rdx
	movq	-8(%rbp), %rax
	movq	%rdx, 472(%rax)
	movq	-8(%rbp), %rax
	leaq	336(%rax), %rdx
	movq	-8(%rbp), %rax
	movq	%rdx, 480(%rax)
	.loc 6 631 0
	movq	-8(%rbp), %rax
	leaq	488(%rax), %rdx
	movq	-8(%rbp), %rax
	movq	%rdx, 600(%rax)
	movq	-8(%rbp), %rax
	leaq	488(%rax), %rdx
	movq	-8(%rbp), %rax
	movq	%rdx, 608(%rax)
	.loc 6 632 0
	movq	-8(%rbp), %rax
	leaq	616(%rax), %rdx
	movq	-8(%rbp), %rax
	movq	%rdx, 648(%rax)
	movq	-8(%rbp), %rax
	leaq	616(%rax), %rdx
	movq	-8(%rbp), %rax
	movq	%rdx, 656(%rax)
	.loc 6 634 0
	movq	-8(%rbp), %rax
	.loc 6 635 0
	leave
	.cfi_def_cfa 7, 8
	ret
	.cfi_endproc
.LFE80:
	.size	_Z9ParseInitP12memory_arena, .-_Z9ParseInitP12memory_arena
	.data
	.type	_ZL13stbsp__period, @object
	.size	_ZL13stbsp__period, 1
_ZL13stbsp__period:
	.byte	46
	.type	_ZL12stbsp__comma, @object
	.size	_ZL12stbsp__comma, 1
_ZL12stbsp__comma:
	.byte	44
	.align 32
	.type	_ZL16stbsp__digitpair, @object
	.size	_ZL16stbsp__digitpair, 204
_ZL16stbsp__digitpair:
	.value	0
	.string	"00010203040506070809101112131415161718192021222324252627282930313233343536373839404142434445464748495051525354555657585960616263646566676869707172737475767778798081828384858687888990919293949596979899"
	.zero	1
	.text
	.globl	stbsp_set_separators
	.type	stbsp_set_separators, @function
stbsp_set_separators:
.LFB81:
	.file 7 "/home/amos/prog/c/amos_libraries/preprocessor/../include/stb_sprintf.h"
	.loc 7 260 0
	.cfi_startproc
	pushq	%rbp
	.cfi_def_cfa_offset 16
	.cfi_offset 6, -16
	movq	%rsp, %rbp
	.cfi_def_cfa_register 6
	movl	%edi, %edx
	movl	%esi, %eax
	movb	%dl, -4(%rbp)
	movb	%al, -8(%rbp)
	.loc 7 261 0
	movzbl	-8(%rbp), %eax
	movb	%al, _ZL13stbsp__period(%rip)
	.loc 7 262 0
	movzbl	-4(%rbp), %eax
	movb	%al, _ZL12stbsp__comma(%rip)
	.loc 7 263 0
	nop
	popq	%rbp
	.cfi_def_cfa 7, 8
	ret
	.cfi_endproc
.LFE81:
	.size	stbsp_set_separators, .-stbsp_set_separators
	.type	_ZL16stbsp__lead_signjPc, @function
_ZL16stbsp__lead_signjPc:
.LFB82:
	.loc 7 280 0
	.cfi_startproc
	pushq	%rbp
	.cfi_def_cfa_offset 16
	.cfi_offset 6, -16
	movq	%rsp, %rbp
	.cfi_def_cfa_register 6
	movl	%edi, -4(%rbp)
	movq	%rsi, -16(%rbp)
	.loc 7 281 0
	movq	-16(%rbp), %rax
	movb	$0, (%rax)
	.loc 7 282 0
	movl	-4(%rbp), %eax
	andl	$128, %eax
	testl	%eax, %eax
	je	.L315
	.loc 7 283 0
	movq	-16(%rbp), %rax
	movb	$1, (%rax)
	.loc 7 284 0
	movq	-16(%rbp), %rax
	addq	$1, %rax
	movb	$45, (%rax)
	.loc 7 292 0
	jmp	.L318
.L315:
	.loc 7 285 0
	movl	-4(%rbp), %eax
	andl	$4, %eax
	testl	%eax, %eax
	je	.L317
	.loc 7 286 0
	movq	-16(%rbp), %rax
	movb	$1, (%rax)
	.loc 7 287 0
	movq	-16(%rbp), %rax
	addq	$1, %rax
	movb	$32, (%rax)
	.loc 7 292 0
	jmp	.L318
.L317:
	.loc 7 288 0
	movl	-4(%rbp), %eax
	andl	$2, %eax
	testl	%eax, %eax
	je	.L318
	.loc 7 289 0
	movq	-16(%rbp), %rax
	movb	$1, (%rax)
	.loc 7 290 0
	movq	-16(%rbp), %rax
	addq	$1, %rax
	movb	$43, (%rax)
.L318:
	.loc 7 292 0
	nop
	popq	%rbp
	.cfi_def_cfa 7, 8
	ret
	.cfi_endproc
.LFE82:
	.size	_ZL16stbsp__lead_signjPc, .-_ZL16stbsp__lead_signjPc
	.data
	.align 16
	.type	_ZZ16stbsp_vsprintfcbE3hex, @object
	.size	_ZZ16stbsp_vsprintfcbE3hex, 19
_ZZ16stbsp_vsprintfcbE3hex:
	.string	"0123456789abcdefxp"
	.align 16
	.type	_ZZ16stbsp_vsprintfcbE4hexu, @object
	.size	_ZZ16stbsp_vsprintfcbE4hexu, 19
_ZZ16stbsp_vsprintfcbE4hexu:
	.string	"0123456789ABCDEFXP"
	.section	.rodata
.LC13:
	.string	"null"
.LC17:
	.string	"_KMGT"
.LC18:
	.string	"_kMGT"
	.text
	.globl	stbsp_vsprintfcb
	.type	stbsp_vsprintfcb, @function
stbsp_vsprintfcb:
.LFB83:
	.loc 7 295 0
	.cfi_startproc
	pushq	%rbp
	.cfi_def_cfa_offset 16
	.cfi_offset 6, -16
	movq	%rsp, %rbp
	.cfi_def_cfa_register 6
	subq	$848, %rsp
	movq	%rdi, -808(%rbp)
	movq	%rsi, -816(%rbp)
	movq	%rdx, -824(%rbp)
	movq	%rcx, -832(%rbp)
	movq	%r8, -840(%rbp)
	.loc 7 295 0
	movq	%fs:40, %rax
	movq	%rax, -8(%rbp)
	xorl	%eax, %eax
	.loc 7 300 0
	movl	$0, -776(%rbp)
	.loc 7 302 0
	movq	-824(%rbp), %rax
	movq	%rax, -616(%rbp)
	.loc 7 303 0
	movq	-832(%rbp), %rax
	movq	%rax, -608(%rbp)
.L329:
.LBB61:
.LBB62:
.LBB63:
.LBB64:
	.loc 7 338 0
	movq	-608(%rbp), %rax
	andl	$3, %eax
	testq	%rax, %rax
	je	.L320
.LBB65:
	.loc 7 339 0
	nop
	jmp	.L321
.L698:
.LBE65:
.LBB74:
.LBB75:
	.loc 7 357 0
	nop
	jmp	.L321
.L700:
	.loc 7 362 0
	nop
.L321:
.LBE75:
.LBE74:
.LBB78:
	.loc 7 340 0
	movq	-608(%rbp), %rax
	movzbl	(%rax), %eax
	cmpb	$37, %al
	je	.L695
	.loc 7 342 0
	nop
	jmp	.L322
.L699:
.LBE78:
.LBB79:
.LBB76:
	.loc 7 359 0
	nop
.L322:
.LBE76:
.LBE79:
.LBB80:
	.loc 7 343 0
	movq	-608(%rbp), %rax
	movzbl	(%rax), %eax
	testb	%al, %al
	je	.L696
.LBB66:
.LBB67:
	.loc 7 345 0
	cmpq	$0, -808(%rbp)
	je	.L326
.LBB68:
.LBB69:
	.loc 7 345 0 is_stmt 0 discriminator 1
	movq	-616(%rbp), %rdx
	movq	-824(%rbp), %rax
	subq	%rax, %rdx
	movq	%rdx, %rax
	movl	%eax, -640(%rbp)
	movl	-640(%rbp), %eax
	addl	$1, %eax
	cmpl	$511, %eax
	jle	.L326
	.loc 7 345 0 discriminator 2
	movl	-640(%rbp), %eax
	addl	%eax, -776(%rbp)
	movl	-640(%rbp), %edx
	movq	-816(%rbp), %rsi
	movq	-824(%rbp), %rcx
	movq	-808(%rbp), %rax
	movq	%rcx, %rdi
	call	*%rax
.LVL0:
	movq	%rax, -824(%rbp)
	movq	-824(%rbp), %rax
	movq	%rax, -616(%rbp)
	cmpq	$0, -616(%rbp)
	sete	%al
	testb	%al, %al
	jne	.L697
.L326:
.LBE69:
.LBE68:
.LBE67:
.LBE66:
	.loc 7 346 0 is_stmt 1
	movq	-608(%rbp), %rax
	movzbl	(%rax), %edx
	movq	-616(%rbp), %rax
	leaq	1(%rax), %rcx
	movq	%rcx, -616(%rbp)
	movb	%dl, (%rax)
	.loc 7 347 0
	addq	$1, -608(%rbp)
.LBE80:
	.loc 7 338 0
	jmp	.L329
.L320:
.LBB81:
.LBB77:
	.loc 7 354 0
	movq	-608(%rbp), %rax
	movl	(%rax), %eax
	movl	%eax, -724(%rbp)
	.loc 7 355 0
	movl	-724(%rbp), %eax
	notl	%eax
	andl	$-2139062144, %eax
	movl	%eax, -720(%rbp)
	.loc 7 356 0
	movl	-724(%rbp), %eax
	xorl	$623191333, %eax
	subl	$16843009, %eax
	andl	-720(%rbp), %eax
	testl	%eax, %eax
	jne	.L698
	.loc 7 358 0
	movl	-724(%rbp), %eax
	subl	$16843009, %eax
	andl	-720(%rbp), %eax
	testl	%eax, %eax
	jne	.L699
	.loc 7 360 0
	cmpq	$0, -808(%rbp)
	je	.L332
	.loc 7 361 0
	movq	-616(%rbp), %rdx
	movq	-824(%rbp), %rax
	subq	%rax, %rdx
	movq	%rdx, %rax
	movl	$512, %edx
	subl	%eax, %edx
	movl	%edx, %eax
	cmpl	$3, %eax
	jle	.L700
.L332:
	.loc 7 372 0
	movq	-616(%rbp), %rax
	movl	-724(%rbp), %edx
	movl	%edx, (%rax)
	.loc 7 374 0
	addq	$4, -616(%rbp)
	.loc 7 375 0
	addq	$4, -608(%rbp)
.LBE77:
	.loc 7 376 0
	jmp	.L320
.L695:
.LBE81:
.LBB82:
	.loc 7 341 0
	nop
.L323:
.LBE82:
.LBE64:
.LBE63:
	.loc 7 380 0
	addq	$1, -608(%rbp)
	.loc 7 383 0
	movl	$0, -772(%rbp)
	.loc 7 384 0
	movl	$-1, -788(%rbp)
	.loc 7 385 0
	movl	$0, -764(%rbp)
	.loc 7 386 0
	movl	$0, -768(%rbp)
.L349:
	.loc 7 390 0
	movq	-608(%rbp), %rax
	movzbl	(%rax), %eax
	movsbl	%al, %eax
	subl	$32, %eax
	cmpl	$63, %eax
	ja	.L701
	movl	%eax, %eax
	leaq	0(,%rax,4), %rdx
	leaq	.L335(%rip), %rax
	movl	(%rdx,%rax), %eax
	movslq	%eax, %rdx
	leaq	.L335(%rip), %rax
	addq	%rdx, %rax
	jmp	*%rax
	.section	.rodata
	.align 4
	.align 4
.L335:
	.long	.L334-.L335
	.long	.L701-.L335
	.long	.L701-.L335
	.long	.L336-.L335
	.long	.L337-.L335
	.long	.L701-.L335
	.long	.L701-.L335
	.long	.L338-.L335
	.long	.L701-.L335
	.long	.L701-.L335
	.long	.L701-.L335
	.long	.L339-.L335
	.long	.L701-.L335
	.long	.L340-.L335
	.long	.L701-.L335
	.long	.L701-.L335
	.long	.L341-.L335
	.long	.L701-.L335
	.long	.L701-.L335
	.long	.L701-.L335
	.long	.L701-.L335
	.long	.L701-.L335
	.long	.L701-.L335
	.long	.L701-.L335
	.long	.L701-.L335
	.long	.L701-.L335
	.long	.L701-.L335
	.long	.L701-.L335
	.long	.L701-.L335
	.long	.L701-.L335
	.long	.L701-.L335
	.long	.L701-.L335
	.long	.L701-.L335
	.long	.L701-.L335
	.long	.L701-.L335
	.long	.L701-.L335
	.long	.L701-.L335
	.long	.L701-.L335
	.long	.L701-.L335
	.long	.L701-.L335
	.long	.L701-.L335
	.long	.L701-.L335
	.long	.L701-.L335
	.long	.L701-.L335
	.long	.L701-.L335
	.long	.L701-.L335
	.long	.L701-.L335
	.long	.L701-.L335
	.long	.L701-.L335
	.long	.L701-.L335
	.long	.L701-.L335
	.long	.L701-.L335
	.long	.L701-.L335
	.long	.L701-.L335
	.long	.L701-.L335
	.long	.L701-.L335
	.long	.L701-.L335
	.long	.L701-.L335
	.long	.L701-.L335
	.long	.L701-.L335
	.long	.L701-.L335
	.long	.L701-.L335
	.long	.L701-.L335
	.long	.L342-.L335
	.text
.L340:
	.loc 7 393 0 discriminator 5
	orl	$1, -764(%rbp)
	.loc 7 394 0 discriminator 5
	addq	$1, -608(%rbp)
	.loc 7 395 0 discriminator 5
	jmp	.L343
.L339:
	.loc 7 398 0 discriminator 4
	orl	$2, -764(%rbp)
	.loc 7 399 0 discriminator 4
	addq	$1, -608(%rbp)
	.loc 7 400 0 discriminator 4
	jmp	.L343
.L334:
	.loc 7 403 0 discriminator 1
	orl	$4, -764(%rbp)
	.loc 7 404 0 discriminator 1
	addq	$1, -608(%rbp)
	.loc 7 405 0 discriminator 1
	jmp	.L343
.L336:
	.loc 7 408 0 discriminator 2
	orl	$8, -764(%rbp)
	.loc 7 409 0 discriminator 2
	addq	$1, -608(%rbp)
	.loc 7 410 0 discriminator 2
	jmp	.L343
.L338:
	.loc 7 413 0 discriminator 3
	orl	$64, -764(%rbp)
	.loc 7 414 0 discriminator 3
	addq	$1, -608(%rbp)
	.loc 7 415 0 discriminator 3
	jmp	.L343
.L337:
	.loc 7 418 0
	movl	-764(%rbp), %eax
	andl	$256, %eax
	testl	%eax, %eax
	je	.L344
	.loc 7 419 0
	movl	-764(%rbp), %eax
	andl	$2048, %eax
	testl	%eax, %eax
	je	.L345
	.loc 7 420 0
	orl	$4096, -764(%rbp)
	jmp	.L347
.L345:
	.loc 7 422 0
	orl	$2048, -764(%rbp)
	jmp	.L347
.L344:
	.loc 7 425 0
	orl	$256, -764(%rbp)
.L347:
	.loc 7 427 0
	addq	$1, -608(%rbp)
	.loc 7 428 0
	jmp	.L343
.L342:
	.loc 7 431 0 discriminator 6
	orl	$1024, -764(%rbp)
	.loc 7 432 0 discriminator 6
	addq	$1, -608(%rbp)
	.loc 7 433 0 discriminator 6
	jmp	.L343
.L341:
	.loc 7 436 0
	orl	$16, -764(%rbp)
	.loc 7 437 0
	addq	$1, -608(%rbp)
	.loc 7 438 0
	jmp	.L348
.L343:
	.loc 7 390 0
	jmp	.L349
.L701:
	.loc 7 439 0
	nop
.L348:
	.loc 7 445 0
	movq	-608(%rbp), %rax
	movzbl	(%rax), %eax
	cmpb	$42, %al
	jne	.L350
	.loc 7 446 0
	movq	-840(%rbp), %rax
	movl	(%rax), %eax
	cmpl	$47, %eax
	ja	.L351
	movq	-840(%rbp), %rax
	movq	16(%rax), %rdx
	movq	-840(%rbp), %rax
	movl	(%rax), %eax
	movl	%eax, %eax
	addq	%rdx, %rax
	movq	-840(%rbp), %rdx
	movl	(%rdx), %edx
	leal	8(%rdx), %ecx
	movq	-840(%rbp), %rdx
	movl	%ecx, (%rdx)
	jmp	.L352
.L351:
	movq	-840(%rbp), %rax
	movq	8(%rax), %rax
	leaq	8(%rax), %rcx
	movq	-840(%rbp), %rdx
	movq	%rcx, 8(%rdx)
.L352:
	movl	(%rax), %eax
	.loc 7 446 0
	movl	%eax, -772(%rbp)
	.loc 7 447 0
	addq	$1, -608(%rbp)
	jmp	.L353
.L350:
	.loc 7 449 0
	movq	-608(%rbp), %rax
	movzbl	(%rax), %eax
	cmpb	$47, %al
	jle	.L353
	.loc 7 449 0 is_stmt 0 discriminator 1
	movq	-608(%rbp), %rax
	movzbl	(%rax), %eax
	cmpb	$57, %al
	jg	.L353
	.loc 7 450 0 is_stmt 1
	movl	-772(%rbp), %edx
	movl	%edx, %eax
	sall	$2, %eax
	addl	%edx, %eax
	addl	%eax, %eax
	movl	%eax, %edx
	movq	-608(%rbp), %rax
	movzbl	(%rax), %eax
	movsbl	%al, %eax
	addl	%edx, %eax
	subl	$48, %eax
	movl	%eax, -772(%rbp)
	.loc 7 451 0
	addq	$1, -608(%rbp)
	.loc 7 449 0
	jmp	.L350
.L353:
	.loc 7 455 0
	movq	-608(%rbp), %rax
	movzbl	(%rax), %eax
	cmpb	$46, %al
	jne	.L354
	.loc 7 456 0
	addq	$1, -608(%rbp)
	.loc 7 457 0
	movq	-608(%rbp), %rax
	movzbl	(%rax), %eax
	cmpb	$42, %al
	jne	.L355
	.loc 7 458 0
	movq	-840(%rbp), %rax
	movl	(%rax), %eax
	cmpl	$47, %eax
	ja	.L356
	movq	-840(%rbp), %rax
	movq	16(%rax), %rdx
	movq	-840(%rbp), %rax
	movl	(%rax), %eax
	movl	%eax, %eax
	addq	%rdx, %rax
	movq	-840(%rbp), %rdx
	movl	(%rdx), %edx
	leal	8(%rdx), %ecx
	movq	-840(%rbp), %rdx
	movl	%ecx, (%rdx)
	jmp	.L357
.L356:
	movq	-840(%rbp), %rax
	movq	8(%rax), %rax
	leaq	8(%rax), %rcx
	movq	-840(%rbp), %rdx
	movq	%rcx, 8(%rdx)
.L357:
	movl	(%rax), %eax
	.loc 7 458 0
	movl	%eax, -788(%rbp)
	.loc 7 459 0
	addq	$1, -608(%rbp)
	jmp	.L354
.L355:
	.loc 7 461 0
	movl	$0, -788(%rbp)
.L358:
	.loc 7 462 0
	movq	-608(%rbp), %rax
	movzbl	(%rax), %eax
	cmpb	$47, %al
	jle	.L354
	.loc 7 462 0 is_stmt 0 discriminator 1
	movq	-608(%rbp), %rax
	movzbl	(%rax), %eax
	cmpb	$57, %al
	jg	.L354
	.loc 7 463 0 is_stmt 1
	movl	-788(%rbp), %edx
	movl	%edx, %eax
	sall	$2, %eax
	addl	%edx, %eax
	addl	%eax, %eax
	movl	%eax, %edx
	movq	-608(%rbp), %rax
	movzbl	(%rax), %eax
	movsbl	%al, %eax
	addl	%edx, %eax
	subl	$48, %eax
	movl	%eax, -788(%rbp)
	.loc 7 464 0
	addq	$1, -608(%rbp)
	.loc 7 462 0
	jmp	.L358
.L354:
	.loc 7 470 0
	movq	-608(%rbp), %rax
	movzbl	(%rax), %eax
	movsbl	%al, %eax
	subl	$73, %eax
	cmpl	$49, %eax
	ja	.L702
	movl	%eax, %eax
	leaq	0(,%rax,4), %rdx
	leaq	.L361(%rip), %rax
	movl	(%rdx,%rax), %eax
	movslq	%eax, %rdx
	leaq	.L361(%rip), %rax
	addq	%rdx, %rax
	jmp	*%rax
	.section	.rodata
	.align 4
	.align 4
.L361:
	.long	.L360-.L361
	.long	.L702-.L361
	.long	.L702-.L361
	.long	.L702-.L361
	.long	.L702-.L361
	.long	.L702-.L361
	.long	.L702-.L361
	.long	.L702-.L361
	.long	.L702-.L361
	.long	.L702-.L361
	.long	.L702-.L361
	.long	.L702-.L361
	.long	.L702-.L361
	.long	.L702-.L361
	.long	.L702-.L361
	.long	.L702-.L361
	.long	.L702-.L361
	.long	.L702-.L361
	.long	.L702-.L361
	.long	.L702-.L361
	.long	.L702-.L361
	.long	.L702-.L361
	.long	.L702-.L361
	.long	.L702-.L361
	.long	.L702-.L361
	.long	.L702-.L361
	.long	.L702-.L361
	.long	.L702-.L361
	.long	.L702-.L361
	.long	.L702-.L361
	.long	.L702-.L361
	.long	.L362-.L361
	.long	.L702-.L361
	.long	.L363-.L361
	.long	.L702-.L361
	.long	.L364-.L361
	.long	.L702-.L361
	.long	.L702-.L361
	.long	.L702-.L361
	.long	.L702-.L361
	.long	.L702-.L361
	.long	.L702-.L361
	.long	.L702-.L361
	.long	.L365-.L361
	.long	.L702-.L361
	.long	.L702-.L361
	.long	.L702-.L361
	.long	.L702-.L361
	.long	.L702-.L361
	.long	.L366-.L361
	.text
.L362:
	.loc 7 473 0
	orl	$512, -764(%rbp)
	.loc 7 474 0
	addq	$1, -608(%rbp)
	.loc 7 475 0
	movq	-608(%rbp), %rax
	movzbl	(%rax), %eax
	cmpb	$104, %al
	jne	.L703
	.loc 7 476 0
	addq	$1, -608(%rbp)
	.loc 7 477 0
	jmp	.L703
.L364:
	.loc 7 480 0
	orl	$32, -764(%rbp)
	.loc 7 481 0
	addq	$1, -608(%rbp)
	.loc 7 482 0
	movq	-608(%rbp), %rax
	movzbl	(%rax), %eax
	cmpb	$108, %al
	jne	.L704
	.loc 7 483 0
	orl	$32, -764(%rbp)
	.loc 7 484 0
	addq	$1, -608(%rbp)
	.loc 7 486 0
	jmp	.L704
.L363:
	.loc 7 489 0
	orl	$32, -764(%rbp)
	.loc 7 490 0
	addq	$1, -608(%rbp)
	.loc 7 491 0
	jmp	.L368
.L366:
	.loc 7 494 0
	orl	$32, -764(%rbp)
	.loc 7 495 0
	addq	$1, -608(%rbp)
	.loc 7 496 0
	jmp	.L368
.L365:
	.loc 7 498 0
	orl	$32, -764(%rbp)
	.loc 7 499 0
	addq	$1, -608(%rbp)
	.loc 7 500 0
	jmp	.L368
.L360:
	.loc 7 503 0
	movq	-608(%rbp), %rax
	addq	$1, %rax
	movzbl	(%rax), %eax
	cmpb	$54, %al
	jne	.L370
	.loc 7 503 0 is_stmt 0 discriminator 1
	movq	-608(%rbp), %rax
	addq	$2, %rax
	movzbl	(%rax), %eax
	cmpb	$52, %al
	jne	.L370
	.loc 7 504 0 is_stmt 1
	orl	$32, -764(%rbp)
	.loc 7 505 0
	addq	$3, -608(%rbp)
	jmp	.L371
.L370:
	.loc 7 506 0
	movq	-608(%rbp), %rax
	addq	$1, %rax
	movzbl	(%rax), %eax
	cmpb	$51, %al
	jne	.L372
	.loc 7 506 0 is_stmt 0 discriminator 1
	movq	-608(%rbp), %rax
	addq	$2, %rax
	movzbl	(%rax), %eax
	cmpb	$50, %al
	jne	.L372
	.loc 7 507 0 is_stmt 1
	addq	$3, -608(%rbp)
	jmp	.L371
.L372:
	.loc 7 509 0
	orl	$32, -764(%rbp)
	.loc 7 510 0
	addq	$1, -608(%rbp)
	.loc 7 512 0
	jmp	.L368
.L371:
	jmp	.L368
.L702:
	.loc 7 513 0
	nop
	jmp	.L368
.L703:
	.loc 7 477 0
	nop
	jmp	.L368
.L704:
	.loc 7 486 0
	nop
.L368:
.LBB87:
	.loc 7 517 0
	movq	-608(%rbp), %rax
	movzbl	(%rax), %eax
	movsbl	%al, %eax
	subl	$65, %eax
	cmpl	$55, %eax
	ja	.L373
	movl	%eax, %eax
	leaq	0(,%rax,4), %rdx
	leaq	.L375(%rip), %rax
	movl	(%rdx,%rax), %eax
	movslq	%eax, %rdx
	leaq	.L375(%rip), %rax
	addq	%rdx, %rax
	jmp	*%rax
	.section	.rodata
	.align 4
	.align 4
.L375:
	.long	.L374-.L375
	.long	.L376-.L375
	.long	.L373-.L375
	.long	.L373-.L375
	.long	.L377-.L375
	.long	.L373-.L375
	.long	.L378-.L375
	.long	.L373-.L375
	.long	.L373-.L375
	.long	.L373-.L375
	.long	.L373-.L375
	.long	.L373-.L375
	.long	.L373-.L375
	.long	.L373-.L375
	.long	.L373-.L375
	.long	.L373-.L375
	.long	.L373-.L375
	.long	.L373-.L375
	.long	.L373-.L375
	.long	.L373-.L375
	.long	.L373-.L375
	.long	.L373-.L375
	.long	.L373-.L375
	.long	.L379-.L375
	.long	.L373-.L375
	.long	.L373-.L375
	.long	.L373-.L375
	.long	.L373-.L375
	.long	.L373-.L375
	.long	.L373-.L375
	.long	.L373-.L375
	.long	.L373-.L375
	.long	.L374-.L375
	.long	.L376-.L375
	.long	.L380-.L375
	.long	.L381-.L375
	.long	.L377-.L375
	.long	.L382-.L375
	.long	.L378-.L375
	.long	.L373-.L375
	.long	.L381-.L375
	.long	.L373-.L375
	.long	.L373-.L375
	.long	.L373-.L375
	.long	.L373-.L375
	.long	.L383-.L375
	.long	.L384-.L375
	.long	.L385-.L375
	.long	.L373-.L375
	.long	.L373-.L375
	.long	.L386-.L375
	.long	.L373-.L375
	.long	.L381-.L375
	.long	.L373-.L375
	.long	.L373-.L375
	.long	.L379-.L375
	.text
.L386:
.LBB88:
	.loc 7 534 0
	movq	-840(%rbp), %rax
	movl	(%rax), %eax
	cmpl	$47, %eax
	ja	.L387
	movq	-840(%rbp), %rax
	movq	16(%rax), %rdx
	movq	-840(%rbp), %rax
	movl	(%rax), %eax
	movl	%eax, %eax
	addq	%rdx, %rax
	movq	-840(%rbp), %rdx
	movl	(%rdx), %edx
	leal	8(%rdx), %ecx
	movq	-840(%rbp), %rdx
	movl	%ecx, (%rdx)
	jmp	.L388
.L387:
	movq	-840(%rbp), %rax
	movq	8(%rax), %rax
	leaq	8(%rax), %rcx
	movq	-840(%rbp), %rdx
	movq	%rcx, 8(%rdx)
.L388:
	movq	(%rax), %rax
	movq	%rax, -600(%rbp)
	.loc 7 535 0
	cmpq	$0, -600(%rbp)
	jne	.L389
	.loc 7 536 0
	leaq	.LC13(%rip), %rax
	movq	%rax, -600(%rbp)
.L389:
	.loc 7 538 0
	movq	-600(%rbp), %rax
	movq	%rax, -624(%rbp)
.L394:
	.loc 7 540 0
	movq	-624(%rbp), %rax
	andl	$3, %eax
	testq	%rax, %rax
	je	.L705
	.loc 7 542 0
	nop
	jmp	.L390
.L708:
	.loc 7 561 0
	nop
	jmp	.L390
.L709:
.LBB89:
	.loc 7 557 0
	nop
.L390:
.LBE89:
	.loc 7 543 0
	movq	-624(%rbp), %rax
	movzbl	(%rax), %eax
	testb	%al, %al
	je	.L706
	.loc 7 545 0
	movq	-624(%rbp), %rax
	addq	$1, %rax
	movq	%rax, -624(%rbp)
	.loc 7 540 0
	jmp	.L394
.L705:
	.loc 7 541 0
	nop
	.loc 7 547 0
	movl	$-1, -760(%rbp)
	.loc 7 548 0
	movl	-788(%rbp), %eax
	testl	%eax, %eax
	js	.L399
	.loc 7 549 0
	movq	-624(%rbp), %rax
	movq	%rax, %rdx
	movq	-600(%rbp), %rax
	subq	%rax, %rdx
	movq	%rdx, %rax
	movl	%eax, -760(%rbp)
	.loc 7 550 0
	movl	-788(%rbp), %eax
	cmpl	%eax, -760(%rbp)
	jnb	.L707
	.loc 7 552 0
	movl	-788(%rbp), %eax
	subl	-760(%rbp), %eax
	shrl	$2, %eax
	movl	%eax, -760(%rbp)
.L399:
	.loc 7 554 0
	cmpl	$0, -760(%rbp)
	je	.L708
.LBB90:
	.loc 7 555 0
	movq	-624(%rbp), %rax
	movl	(%rax), %eax
	movl	%eax, -716(%rbp)
	.loc 7 556 0
	movl	-716(%rbp), %eax
	leal	-16843009(%rax), %edx
	movl	-716(%rbp), %eax
	notl	%eax
	andl	%edx, %eax
	andl	$-2139062144, %eax
	testl	%eax, %eax
	jne	.L709
	.loc 7 558 0
	movq	-624(%rbp), %rax
	addq	$4, %rax
	movq	%rax, -624(%rbp)
	.loc 7 559 0
	subl	$1, -760(%rbp)
.LBE90:
	.loc 7 554 0
	jmp	.L399
.L706:
	.loc 7 544 0
	nop
	jmp	.L393
.L707:
	.loc 7 551 0
	nop
.L393:
	.loc 7 564 0
	movq	-624(%rbp), %rax
	movq	%rax, %rdx
	movq	-600(%rbp), %rax
	subq	%rax, %rdx
	movq	%rdx, %rax
	movl	%eax, -784(%rbp)
	.loc 7 566 0
	movl	-784(%rbp), %eax
	movl	-788(%rbp), %edx
	cmpl	%edx, %eax
	jbe	.L400
	.loc 7 567 0
	movl	-788(%rbp), %eax
	movl	%eax, -784(%rbp)
.L400:
	.loc 7 568 0
	movb	$0, -544(%rbp)
	.loc 7 569 0
	movb	$0, -536(%rbp)
	.loc 7 570 0
	movl	$0, -788(%rbp)
	.loc 7 571 0
	movl	$0, -780(%rbp)
	.loc 7 572 0
	movl	$0, -756(%rbp)
	.loc 7 574 0
	jmp	.L401
.L380:
	.loc 7 578 0
	leaq	-528(%rbp), %rax
	addq	$511, %rax
	movq	%rax, -600(%rbp)
	.loc 7 579 0
	movq	-840(%rbp), %rax
	movl	(%rax), %eax
	cmpl	$47, %eax
	ja	.L402
	movq	-840(%rbp), %rax
	movq	16(%rax), %rdx
	movq	-840(%rbp), %rax
	movl	(%rax), %eax
	movl	%eax, %eax
	addq	%rdx, %rax
	movq	-840(%rbp), %rdx
	movl	(%rdx), %edx
	leal	8(%rdx), %ecx
	movq	-840(%rbp), %rdx
	movl	%ecx, (%rdx)
	jmp	.L403
.L402:
	movq	-840(%rbp), %rax
	movq	8(%rax), %rax
	leaq	8(%rax), %rcx
	movq	-840(%rbp), %rdx
	movq	%rcx, 8(%rdx)
.L403:
	movl	(%rax), %eax
	.loc 7 579 0
	movl	%eax, %edx
	movq	-600(%rbp), %rax
	movb	%dl, (%rax)
	.loc 7 580 0
	movl	$1, -784(%rbp)
	.loc 7 581 0
	movb	$0, -544(%rbp)
	.loc 7 582 0
	movb	$0, -536(%rbp)
	.loc 7 583 0
	movl	$0, -788(%rbp)
	.loc 7 584 0
	movl	$0, -780(%rbp)
	.loc 7 585 0
	movl	$0, -756(%rbp)
	.loc 7 586 0
	jmp	.L401
.L383:
.LBB91:
	.loc 7 590 0
	movq	-840(%rbp), %rax
	movl	(%rax), %eax
	cmpl	$47, %eax
	ja	.L404
	movq	-840(%rbp), %rax
	movq	16(%rax), %rdx
	movq	-840(%rbp), %rax
	movl	(%rax), %eax
	movl	%eax, %eax
	addq	%rdx, %rax
	movq	-840(%rbp), %rdx
	movl	(%rdx), %edx
	leal	8(%rdx), %ecx
	movq	-840(%rbp), %rdx
	movl	%ecx, (%rdx)
	jmp	.L405
.L404:
	movq	-840(%rbp), %rax
	movq	8(%rax), %rax
	leaq	8(%rax), %rcx
	movq	-840(%rbp), %rdx
	movq	%rcx, 8(%rdx)
.L405:
	movq	(%rax), %rax
	movq	%rax, -560(%rbp)
	.loc 7 591 0
	movq	-616(%rbp), %rdx
	movq	-824(%rbp), %rax
	subq	%rax, %rdx
	movq	%rdx, %rax
	movl	%eax, %edx
	movl	-776(%rbp), %eax
	addl	%eax, %edx
	movq	-560(%rbp), %rax
	movl	%edx, (%rax)
.LBE91:
	.loc 7 592 0
	jmp	.L406
.L374:
	.loc 7 614 0
	movq	-608(%rbp), %rax
	movzbl	(%rax), %eax
	cmpb	$65, %al
	jne	.L407
	.loc 7 614 0 is_stmt 0 discriminator 1
	leaq	_ZZ16stbsp_vsprintfcbE4hexu(%rip), %rax
	jmp	.L408
.L407:
	.loc 7 614 0 discriminator 2
	leaq	_ZZ16stbsp_vsprintfcbE3hex(%rip), %rax
.L408:
	.loc 7 614 0 discriminator 4
	movq	%rax, -592(%rbp)
	.loc 7 615 0 is_stmt 1 discriminator 4
	movq	-840(%rbp), %rax
	movl	4(%rax), %eax
	cmpl	$175, %eax
	ja	.L409
	.loc 7 615 0 is_stmt 0
	movq	-840(%rbp), %rax
	movq	16(%rax), %rdx
	movq	-840(%rbp), %rax
	movl	4(%rax), %eax
	movl	%eax, %eax
	addq	%rdx, %rax
	movq	-840(%rbp), %rdx
	movl	4(%rdx), %edx
	leal	16(%rdx), %ecx
	movq	-840(%rbp), %rdx
	movl	%ecx, 4(%rdx)
	jmp	.L410
.L409:
	movq	-840(%rbp), %rax
	movq	8(%rax), %rax
	leaq	8(%rax), %rcx
	movq	-840(%rbp), %rdx
	movq	%rcx, 8(%rdx)
.L410:
	movsd	(%rax), %xmm0
	movsd	%xmm0, -584(%rbp)
	.loc 7 616 0 is_stmt 1
	movl	-788(%rbp), %eax
	cmpl	$-1, %eax
	jne	.L411
	.loc 7 617 0
	movl	$6, -788(%rbp)
.L411:
	.loc 7 619 0
	movq	-584(%rbp), %rcx
	leaq	-780(%rbp), %rdx
	leaq	-632(%rbp), %rax
	movq	%rcx, -848(%rbp)
	movsd	-848(%rbp), %xmm0
	movq	%rdx, %rsi
	movq	%rax, %rdi
	call	_ZL20stbsp__real_to_partsPxPid
	testl	%eax, %eax
	setne	%al
	testb	%al, %al
	je	.L412
	.loc 7 620 0
	orl	$128, -764(%rbp)
.L412:
	.loc 7 622 0
	leaq	-528(%rbp), %rax
	addq	$64, %rax
	movq	%rax, -600(%rbp)
	.loc 7 624 0
	leaq	-544(%rbp), %rdx
	movl	-764(%rbp), %eax
	movq	%rdx, %rsi
	movl	%eax, %edi
	call	_ZL16stbsp__lead_signjPc
	.loc 7 626 0
	movl	-780(%rbp), %eax
	cmpl	$-1023, %eax
	jne	.L413
	.loc 7 627 0
	movq	-632(%rbp), %rax
	testq	%rax, %rax
	je	.L414
	.loc 7 627 0 is_stmt 0 discriminator 1
	movl	$-1022, %eax
	jmp	.L415
.L414:
	.loc 7 627 0 discriminator 2
	movl	$0, %eax
.L415:
	.loc 7 627 0 discriminator 4
	movl	%eax, -780(%rbp)
	jmp	.L416
.L413:
	.loc 7 629 0 is_stmt 1
	movq	-632(%rbp), %rdx
	movabsq	$4503599627370496, %rax
	orq	%rdx, %rax
	movq	%rax, -632(%rbp)
.L416:
	.loc 7 630 0
	movq	-632(%rbp), %rax
	salq	$8, %rax
	movq	%rax, -632(%rbp)
	.loc 7 631 0
	movl	-788(%rbp), %eax
	cmpl	$14, %eax
	jg	.L417
	.loc 7 632 0
	movl	-788(%rbp), %eax
	sall	$2, %eax
	movabsq	$576460752303423488, %rdx
	movl	%eax, %ecx
	shrq	%cl, %rdx
	movq	-632(%rbp), %rax
	addq	%rdx, %rax
	movq	%rax, -632(%rbp)
.L417:
	.loc 7 639 0
	movzbl	-544(%rbp), %eax
	movsbl	%al, %eax
	addl	$1, %eax
	cltq
	movb	$48, -544(%rbp,%rax)
	.loc 7 640 0
	movzbl	-544(%rbp), %eax
	movsbl	%al, %eax
	addl	$2, %eax
	cltq
	movb	$120, -544(%rbp,%rax)
	.loc 7 641 0
	movzbl	-544(%rbp), %eax
	addl	$2, %eax
	movb	%al, -544(%rbp)
	.loc 7 643 0
	movq	-632(%rbp), %rax
	shrq	$60, %rax
	movq	%rax, %rdx
	movq	-592(%rbp), %rax
	addq	%rdx, %rax
	movzbl	(%rax), %edx
	movq	-600(%rbp), %rax
	leaq	1(%rax), %rcx
	movq	%rcx, -600(%rbp)
	movb	%dl, (%rax)
	.loc 7 644 0
	movq	-632(%rbp), %rax
	salq	$4, %rax
	movq	%rax, -632(%rbp)
	.loc 7 645 0
	movl	-788(%rbp), %eax
	testl	%eax, %eax
	je	.L418
	.loc 7 646 0
	movzbl	_ZL13stbsp__period(%rip), %edx
	movq	-600(%rbp), %rax
	leaq	1(%rax), %rcx
	movq	%rcx, -600(%rbp)
	movb	%dl, (%rax)
.L418:
	.loc 7 647 0
	movq	-600(%rbp), %rax
	movq	%rax, -624(%rbp)
	.loc 7 650 0
	movl	-788(%rbp), %eax
	movl	%eax, -760(%rbp)
	.loc 7 651 0
	cmpl	$13, -760(%rbp)
	jbe	.L419
	.loc 7 652 0
	movl	$13, -760(%rbp)
.L419:
	.loc 7 653 0
	movl	-788(%rbp), %edx
	movl	-760(%rbp), %eax
	cmpl	%eax, %edx
	jle	.L420
	.loc 7 654 0
	movl	-788(%rbp), %eax
	subl	-760(%rbp), %eax
	movl	%eax, -768(%rbp)
.L420:
	.loc 7 655 0
	movl	$0, -788(%rbp)
.L422:
	.loc 7 656 0
	movl	-760(%rbp), %eax
	leal	-1(%rax), %edx
	movl	%edx, -760(%rbp)
	testl	%eax, %eax
	setne	%al
	testb	%al, %al
	je	.L421
	.loc 7 657 0
	movq	-632(%rbp), %rax
	shrq	$60, %rax
	movq	%rax, %rdx
	movq	-592(%rbp), %rax
	addq	%rdx, %rax
	movzbl	(%rax), %edx
	movq	-600(%rbp), %rax
	leaq	1(%rax), %rcx
	movq	%rcx, -600(%rbp)
	movb	%dl, (%rax)
	.loc 7 658 0
	movq	-632(%rbp), %rax
	salq	$4, %rax
	movq	%rax, -632(%rbp)
	.loc 7 656 0
	jmp	.L422
.L421:
	.loc 7 662 0
	movq	-592(%rbp), %rax
	addq	$17, %rax
	movzbl	(%rax), %eax
	movb	%al, -535(%rbp)
	.loc 7 663 0
	movl	-780(%rbp), %eax
	testl	%eax, %eax
	jns	.L423
	.loc 7 664 0
	movb	$45, -534(%rbp)
	.loc 7 665 0
	movl	-780(%rbp), %eax
	negl	%eax
	movl	%eax, -780(%rbp)
	jmp	.L424
.L423:
	.loc 7 667 0
	movb	$43, -534(%rbp)
.L424:
	.loc 7 668 0
	movl	-780(%rbp), %eax
	cmpl	$999, %eax
	jg	.L425
	.loc 7 668 0 is_stmt 0 discriminator 1
	movl	-780(%rbp), %eax
	cmpl	$99, %eax
	jg	.L426
	.loc 7 668 0 discriminator 3
	movl	-780(%rbp), %eax
	cmpl	$9, %eax
	jle	.L427
	.loc 7 668 0 discriminator 5
	movl	$4, %eax
	jmp	.L430
.L427:
	.loc 7 668 0 discriminator 6
	movl	$3, %eax
	jmp	.L430
.L426:
	.loc 7 668 0 discriminator 4
	movl	$5, %eax
	jmp	.L430
.L425:
	.loc 7 668 0 discriminator 2
	movl	$6, %eax
.L430:
	.loc 7 668 0 discriminator 12
	movl	%eax, -760(%rbp)
	.loc 7 669 0 is_stmt 1 discriminator 12
	movl	-760(%rbp), %eax
	movb	%al, -536(%rbp)
.L433:
	.loc 7 671 0
	movl	-780(%rbp), %ecx
	movl	$1717986919, %edx
	movl	%ecx, %eax
	imull	%edx
	sarl	$2, %edx
	movl	%ecx, %eax
	sarl	$31, %eax
	subl	%eax, %edx
	movl	%edx, %eax
	sall	$2, %eax
	addl	%edx, %eax
	addl	%eax, %eax
	subl	%eax, %ecx
	movl	%ecx, %edx
	movl	%edx, %eax
	addl	$48, %eax
	movl	%eax, %edx
	movl	-760(%rbp), %eax
	movb	%dl, -536(%rbp,%rax)
	.loc 7 672 0
	cmpl	$3, -760(%rbp)
	jbe	.L710
	.loc 7 674 0
	subl	$1, -760(%rbp)
	.loc 7 675 0
	movl	-780(%rbp), %ecx
	movl	$1717986919, %edx
	movl	%ecx, %eax
	imull	%edx
	sarl	$2, %edx
	movl	%ecx, %eax
	sarl	$31, %eax
	subl	%eax, %edx
	movl	%edx, %eax
	movl	%eax, -780(%rbp)
	.loc 7 671 0
	jmp	.L433
.L710:
	.loc 7 673 0
	nop
	.loc 7 678 0
	movq	-600(%rbp), %rax
	movq	-624(%rbp), %rdx
	subq	%rdx, %rax
	movl	%eax, -780(%rbp)
	.loc 7 679 0
	movq	-600(%rbp), %rdx
	leaq	-528(%rbp), %rax
	addq	$64, %rax
	subq	%rax, %rdx
	movq	%rdx, %rax
	movl	%eax, -784(%rbp)
	.loc 7 680 0
	leaq	-528(%rbp), %rax
	addq	$64, %rax
	movq	%rax, -600(%rbp)
	.loc 7 681 0
	movl	$50331649, -756(%rbp)
	.loc 7 682 0
	jmp	.L401
.L378:
	.loc 7 686 0
	movq	-608(%rbp), %rax
	movzbl	(%rax), %eax
	cmpb	$71, %al
	jne	.L434
	.loc 7 686 0 is_stmt 0 discriminator 1
	leaq	_ZZ16stbsp_vsprintfcbE4hexu(%rip), %rax
	jmp	.L435
.L434:
	.loc 7 686 0 discriminator 2
	leaq	_ZZ16stbsp_vsprintfcbE3hex(%rip), %rax
.L435:
	.loc 7 686 0 discriminator 4
	movq	%rax, -592(%rbp)
	.loc 7 687 0 is_stmt 1 discriminator 4
	movq	-840(%rbp), %rax
	movl	4(%rax), %eax
	cmpl	$175, %eax
	ja	.L436
	.loc 7 687 0 is_stmt 0
	movq	-840(%rbp), %rax
	movq	16(%rax), %rdx
	movq	-840(%rbp), %rax
	movl	4(%rax), %eax
	movl	%eax, %eax
	addq	%rdx, %rax
	movq	-840(%rbp), %rdx
	movl	4(%rdx), %edx
	leal	16(%rdx), %ecx
	movq	-840(%rbp), %rdx
	movl	%ecx, 4(%rdx)
	jmp	.L437
.L436:
	movq	-840(%rbp), %rax
	movq	8(%rax), %rax
	leaq	8(%rax), %rcx
	movq	-840(%rbp), %rdx
	movq	%rcx, 8(%rdx)
.L437:
	movsd	(%rax), %xmm0
	movsd	%xmm0, -584(%rbp)
	.loc 7 688 0 is_stmt 1
	movl	-788(%rbp), %eax
	cmpl	$-1, %eax
	jne	.L438
	.loc 7 689 0
	movl	$6, -788(%rbp)
	jmp	.L439
.L438:
	.loc 7 690 0
	movl	-788(%rbp), %eax
	testl	%eax, %eax
	jne	.L439
	.loc 7 691 0
	movl	$1, -788(%rbp)
.L439:
	.loc 7 693 0
	movl	-788(%rbp), %eax
	subl	$1, %eax
	orl	$-2147483648, %eax
	movl	%eax, %r8d
	movq	-584(%rbp), %rdi
	leaq	-780(%rbp), %rcx
	leaq	-528(%rbp), %rdx
	leaq	-784(%rbp), %rsi
	leaq	-624(%rbp), %rax
	movq	%rdi, -848(%rbp)
	movsd	-848(%rbp), %xmm0
	movq	%rax, %rdi
	call	_ZL18stbsp__real_to_strPPKcPjPcPidj
	testl	%eax, %eax
	setne	%al
	testb	%al, %al
	je	.L440
	.loc 7 694 0
	orl	$128, -764(%rbp)
.L440:
	.loc 7 697 0
	movl	-788(%rbp), %eax
	movl	%eax, -760(%rbp)
	.loc 7 698 0
	movl	-784(%rbp), %eax
	movl	-788(%rbp), %edx
	cmpl	%edx, %eax
	jbe	.L443
	.loc 7 699 0
	movl	-788(%rbp), %eax
	movl	%eax, -784(%rbp)
.L443:
	.loc 7 700 0
	movl	-784(%rbp), %eax
	cmpl	$1, %eax
	jbe	.L442
	.loc 7 700 0 is_stmt 0 discriminator 1
	movl	-788(%rbp), %eax
	testl	%eax, %eax
	je	.L442
	.loc 7 700 0 discriminator 2
	movq	-624(%rbp), %rax
	movl	-784(%rbp), %edx
	subl	$1, %edx
	movl	%edx, %edx
	addq	%rdx, %rax
	movzbl	(%rax), %eax
	cmpb	$48, %al
	jne	.L442
	.loc 7 701 0 is_stmt 1
	movl	-788(%rbp), %eax
	subl	$1, %eax
	movl	%eax, -788(%rbp)
	.loc 7 702 0
	movl	-784(%rbp), %eax
	subl	$1, %eax
	movl	%eax, -784(%rbp)
	.loc 7 700 0
	jmp	.L443
.L442:
	.loc 7 706 0
	movl	-780(%rbp), %eax
	cmpl	$-3, %eax
	jl	.L444
	.loc 7 706 0 is_stmt 0 discriminator 1
	movl	-780(%rbp), %edx
	movl	-760(%rbp), %eax
	cmpl	%eax, %edx
	jle	.L445
.L444:
	.loc 7 707 0 is_stmt 1
	movl	-788(%rbp), %eax
	movl	-784(%rbp), %edx
	cmpl	%edx, %eax
	jle	.L446
	.loc 7 708 0
	movl	-784(%rbp), %eax
	subl	$1, %eax
	movl	%eax, -788(%rbp)
	.loc 7 711 0
	jmp	.L711
.L446:
	.loc 7 709 0
	movl	-788(%rbp), %eax
	testl	%eax, %eax
	je	.L711
	.loc 7 710 0
	movl	-788(%rbp), %eax
	subl	$1, %eax
	movl	%eax, -788(%rbp)
	.loc 7 711 0
	jmp	.L711
.L445:
	.loc 7 714 0
	movl	-780(%rbp), %eax
	testl	%eax, %eax
	jle	.L449
	.loc 7 715 0
	movl	-780(%rbp), %eax
	movl	-784(%rbp), %edx
	cmpl	%edx, %eax
	jge	.L450
	.loc 7 715 0 is_stmt 0 discriminator 1
	movl	-784(%rbp), %eax
	movl	-780(%rbp), %edx
	subl	%edx, %eax
	jmp	.L451
.L450:
	.loc 7 715 0 discriminator 2
	movl	$0, %eax
.L451:
	.loc 7 715 0 discriminator 4
	movl	%eax, -788(%rbp)
	.loc 7 719 0 is_stmt 1 discriminator 4
	jmp	.L455
.L449:
	.loc 7 717 0
	movl	-788(%rbp), %eax
	movl	-784(%rbp), %edx
	cmpl	%edx, %eax
	jle	.L453
	.loc 7 717 0 is_stmt 0 discriminator 1
	movl	-784(%rbp), %eax
	jmp	.L454
.L453:
	.loc 7 717 0 discriminator 2
	movl	-788(%rbp), %eax
.L454:
	.loc 7 717 0 discriminator 4
	movl	-780(%rbp), %edx
	subl	%edx, %eax
	movl	%eax, -788(%rbp)
	.loc 7 719 0 is_stmt 1 discriminator 4
	jmp	.L455
.L377:
	.loc 7 723 0
	movq	-608(%rbp), %rax
	movzbl	(%rax), %eax
	cmpb	$69, %al
	jne	.L456
	.loc 7 723 0 is_stmt 0 discriminator 1
	leaq	_ZZ16stbsp_vsprintfcbE4hexu(%rip), %rax
	jmp	.L457
.L456:
	.loc 7 723 0 discriminator 2
	leaq	_ZZ16stbsp_vsprintfcbE3hex(%rip), %rax
.L457:
	.loc 7 723 0 discriminator 4
	movq	%rax, -592(%rbp)
	.loc 7 724 0 is_stmt 1 discriminator 4
	movq	-840(%rbp), %rax
	movl	4(%rax), %eax
	cmpl	$175, %eax
	ja	.L458
	.loc 7 724 0 is_stmt 0
	movq	-840(%rbp), %rax
	movq	16(%rax), %rdx
	movq	-840(%rbp), %rax
	movl	4(%rax), %eax
	movl	%eax, %eax
	addq	%rdx, %rax
	movq	-840(%rbp), %rdx
	movl	4(%rdx), %edx
	leal	16(%rdx), %ecx
	movq	-840(%rbp), %rdx
	movl	%ecx, 4(%rdx)
	jmp	.L459
.L458:
	movq	-840(%rbp), %rax
	movq	8(%rax), %rax
	leaq	8(%rax), %rcx
	movq	-840(%rbp), %rdx
	movq	%rcx, 8(%rdx)
.L459:
	movsd	(%rax), %xmm0
	movsd	%xmm0, -584(%rbp)
	.loc 7 725 0 is_stmt 1
	movl	-788(%rbp), %eax
	cmpl	$-1, %eax
	jne	.L460
	.loc 7 726 0
	movl	$6, -788(%rbp)
.L460:
	.loc 7 728 0
	movl	-788(%rbp), %eax
	orl	$-2147483648, %eax
	movl	%eax, %r8d
	movq	-584(%rbp), %rdi
	leaq	-780(%rbp), %rcx
	leaq	-528(%rbp), %rdx
	leaq	-784(%rbp), %rsi
	leaq	-624(%rbp), %rax
	movq	%rdi, -848(%rbp)
	movsd	-848(%rbp), %xmm0
	movq	%rax, %rdi
	call	_ZL18stbsp__real_to_strPPKcPjPcPidj
	testl	%eax, %eax
	setne	%al
	testb	%al, %al
	je	.L712
	.loc 7 729 0
	orl	$128, -764(%rbp)
	jmp	.L448
.L711:
	.loc 7 711 0
	nop
	jmp	.L448
.L712:
	.loc 7 730 0
	nop
.L448:
	.loc 7 731 0
	movb	$0, -536(%rbp)
	.loc 7 732 0
	leaq	-544(%rbp), %rdx
	movl	-764(%rbp), %eax
	movq	%rdx, %rsi
	movl	%eax, %edi
	call	_ZL16stbsp__lead_signjPc
	.loc 7 733 0
	movl	-780(%rbp), %eax
	cmpl	$28672, %eax
	jne	.L461
	.loc 7 734 0
	movq	-624(%rbp), %rax
	movq	%rax, -600(%rbp)
	.loc 7 735 0
	movl	$0, -756(%rbp)
	.loc 7 736 0
	movl	$0, -788(%rbp)
	.loc 7 737 0
	jmp	.L401
.L461:
	.loc 7 739 0
	leaq	-528(%rbp), %rax
	addq	$64, %rax
	movq	%rax, -600(%rbp)
	.loc 7 741 0
	movq	-624(%rbp), %rax
	movzbl	(%rax), %edx
	movq	-600(%rbp), %rax
	leaq	1(%rax), %rcx
	movq	%rcx, -600(%rbp)
	movb	%dl, (%rax)
	.loc 7 743 0
	movl	-788(%rbp), %eax
	testl	%eax, %eax
	je	.L462
	.loc 7 744 0
	movzbl	_ZL13stbsp__period(%rip), %edx
	movq	-600(%rbp), %rax
	leaq	1(%rax), %rcx
	movq	%rcx, -600(%rbp)
	movb	%dl, (%rax)
.L462:
	.loc 7 747 0
	movl	-784(%rbp), %eax
	leal	-1(%rax), %edx
	movl	-788(%rbp), %eax
	cmpl	%eax, %edx
	jbe	.L463
	.loc 7 748 0
	movl	-788(%rbp), %eax
	addl	$1, %eax
	movl	%eax, -784(%rbp)
.L463:
	.loc 7 749 0
	movl	$1, -760(%rbp)
.L465:
	.loc 7 749 0 is_stmt 0 discriminator 3
	movl	-784(%rbp), %eax
	cmpl	%eax, -760(%rbp)
	jnb	.L464
	.loc 7 750 0 is_stmt 1 discriminator 2
	movq	-624(%rbp), %rdx
	movl	-760(%rbp), %eax
	addq	%rdx, %rax
	movzbl	(%rax), %edx
	movq	-600(%rbp), %rax
	leaq	1(%rax), %rcx
	movq	%rcx, -600(%rbp)
	movb	%dl, (%rax)
	.loc 7 749 0 discriminator 2
	addl	$1, -760(%rbp)
	jmp	.L465
.L464:
	.loc 7 752 0
	movl	-788(%rbp), %eax
	movl	%eax, %edx
	movl	-784(%rbp), %eax
	subl	%eax, %edx
	movl	%edx, %eax
	addl	$1, %eax
	movl	%eax, -768(%rbp)
	.loc 7 753 0
	movl	$0, -788(%rbp)
	.loc 7 755 0
	movq	-592(%rbp), %rax
	addq	$14, %rax
	movzbl	(%rax), %eax
	movb	%al, -535(%rbp)
	.loc 7 756 0
	movl	-780(%rbp), %eax
	subl	$1, %eax
	movl	%eax, -780(%rbp)
	.loc 7 757 0
	movl	-780(%rbp), %eax
	testl	%eax, %eax
	jns	.L466
	.loc 7 758 0
	movb	$45, -534(%rbp)
	.loc 7 759 0
	movl	-780(%rbp), %eax
	negl	%eax
	movl	%eax, -780(%rbp)
	jmp	.L467
.L466:
	.loc 7 761 0
	movb	$43, -534(%rbp)
.L467:
	.loc 7 765 0
	movl	-780(%rbp), %eax
	cmpl	$99, %eax
	jle	.L468
	.loc 7 765 0 is_stmt 0 discriminator 1
	movl	$5, %eax
	jmp	.L469
.L468:
	.loc 7 765 0 discriminator 2
	movl	$4, %eax
.L469:
	.loc 7 765 0 discriminator 4
	movl	%eax, -760(%rbp)
	.loc 7 767 0 is_stmt 1 discriminator 4
	movl	-760(%rbp), %eax
	movb	%al, -536(%rbp)
.L472:
	.loc 7 769 0
	movl	-780(%rbp), %ecx
	movl	$1717986919, %edx
	movl	%ecx, %eax
	imull	%edx
	sarl	$2, %edx
	movl	%ecx, %eax
	sarl	$31, %eax
	subl	%eax, %edx
	movl	%edx, %eax
	sall	$2, %eax
	addl	%edx, %eax
	addl	%eax, %eax
	subl	%eax, %ecx
	movl	%ecx, %edx
	movl	%edx, %eax
	addl	$48, %eax
	movl	%eax, %edx
	movl	-760(%rbp), %eax
	movb	%dl, -536(%rbp,%rax)
	.loc 7 770 0
	cmpl	$3, -760(%rbp)
	jbe	.L713
	.loc 7 772 0
	subl	$1, -760(%rbp)
	.loc 7 773 0
	movl	-780(%rbp), %ecx
	movl	$1717986919, %edx
	movl	%ecx, %eax
	imull	%edx
	sarl	$2, %edx
	movl	%ecx, %eax
	sarl	$31, %eax
	subl	%eax, %edx
	movl	%edx, %eax
	movl	%eax, -780(%rbp)
	.loc 7 769 0
	jmp	.L472
.L713:
	.loc 7 771 0
	nop
	.loc 7 775 0
	movl	$50331649, -756(%rbp)
	.loc 7 776 0
	jmp	.L473
.L382:
	.loc 7 779 0
	movq	-840(%rbp), %rax
	movl	4(%rax), %eax
	cmpl	$175, %eax
	ja	.L474
	movq	-840(%rbp), %rax
	movq	16(%rax), %rdx
	movq	-840(%rbp), %rax
	movl	4(%rax), %eax
	movl	%eax, %eax
	addq	%rdx, %rax
	movq	-840(%rbp), %rdx
	movl	4(%rdx), %edx
	leal	16(%rdx), %ecx
	movq	-840(%rbp), %rdx
	movl	%ecx, 4(%rdx)
	jmp	.L475
.L474:
	movq	-840(%rbp), %rax
	movq	8(%rax), %rax
	leaq	8(%rax), %rcx
	movq	-840(%rbp), %rdx
	movq	%rcx, 8(%rdx)
.L475:
	movsd	(%rax), %xmm0
	movsd	%xmm0, -584(%rbp)
.L476:
.LBB92:
	.loc 7 782 0
	movl	-764(%rbp), %eax
	andl	$256, %eax
	testl	%eax, %eax
	je	.L477
.LBB93:
	.loc 7 784 0
	movsd	.LC14(%rip), %xmm0
	movsd	%xmm0, -576(%rbp)
	.loc 7 785 0
	movl	-764(%rbp), %eax
	andl	$2048, %eax
	testl	%eax, %eax
	je	.L483
	.loc 7 786 0
	movsd	.LC15(%rip), %xmm0
	movsd	%xmm0, -576(%rbp)
.L483:
	.loc 7 787 0
	cmpl	$67108863, -764(%rbp)
	ja	.L477
	.loc 7 788 0
	movsd	-576(%rbp), %xmm0
	ucomisd	-584(%rbp), %xmm0
	jbe	.L480
	.loc 7 788 0 is_stmt 0 discriminator 1
	movsd	-576(%rbp), %xmm1
	movq	.LC16(%rip), %xmm0
	xorpd	%xmm1, %xmm0
	movsd	-584(%rbp), %xmm1
	ucomisd	%xmm0, %xmm1
	ja	.L714
.L480:
	.loc 7 790 0 is_stmt 1
	movsd	-584(%rbp), %xmm0
	divsd	-576(%rbp), %xmm0
	movsd	%xmm0, -584(%rbp)
	.loc 7 791 0
	addl	$16777216, -764(%rbp)
	.loc 7 787 0
	jmp	.L483
.L714:
	.loc 7 789 0
	nop
.L477:
.LBE93:
.LBE92:
	.loc 7 794 0
	movl	-788(%rbp), %eax
	cmpl	$-1, %eax
	jne	.L484
	.loc 7 795 0
	movl	$6, -788(%rbp)
.L484:
	.loc 7 797 0
	movl	-788(%rbp), %eax
	movl	%eax, %r8d
	movq	-584(%rbp), %rdi
	leaq	-780(%rbp), %rcx
	leaq	-528(%rbp), %rdx
	leaq	-784(%rbp), %rsi
	leaq	-624(%rbp), %rax
	movq	%rdi, -848(%rbp)
	movsd	-848(%rbp), %xmm0
	movq	%rax, %rdi
	call	_ZL18stbsp__real_to_strPPKcPjPcPidj
	testl	%eax, %eax
	setne	%al
	testb	%al, %al
	je	.L715
	.loc 7 798 0
	orl	$128, -764(%rbp)
	jmp	.L455
.L715:
	.loc 7 799 0
	nop
.L455:
	.loc 7 800 0
	movb	$0, -536(%rbp)
	.loc 7 801 0
	leaq	-544(%rbp), %rdx
	movl	-764(%rbp), %eax
	movq	%rdx, %rsi
	movl	%eax, %edi
	call	_ZL16stbsp__lead_signjPc
	.loc 7 802 0
	movl	-780(%rbp), %eax
	cmpl	$28672, %eax
	jne	.L485
	.loc 7 803 0
	movq	-624(%rbp), %rax
	movq	%rax, -600(%rbp)
	.loc 7 804 0
	movl	$0, -756(%rbp)
	.loc 7 805 0
	movl	$0, -788(%rbp)
	.loc 7 806 0
	jmp	.L401
.L485:
	.loc 7 808 0
	leaq	-528(%rbp), %rax
	addq	$64, %rax
	movq	%rax, -600(%rbp)
.LBB94:
	.loc 7 811 0
	movl	-780(%rbp), %eax
	testl	%eax, %eax
	jg	.L486
.LBB95:
	.loc 7 814 0
	movq	-600(%rbp), %rax
	leaq	1(%rax), %rdx
	movq	%rdx, -600(%rbp)
	movb	$48, (%rax)
	.loc 7 815 0
	movl	-788(%rbp), %eax
	testl	%eax, %eax
	je	.L487
	.loc 7 816 0
	movzbl	_ZL13stbsp__period(%rip), %edx
	movq	-600(%rbp), %rax
	leaq	1(%rax), %rcx
	movq	%rcx, -600(%rbp)
	movb	%dl, (%rax)
.L487:
	.loc 7 817 0
	movl	-780(%rbp), %eax
	negl	%eax
	movl	%eax, -760(%rbp)
	.loc 7 818 0
	movl	-760(%rbp), %edx
	movl	-788(%rbp), %eax
	cmpl	%eax, %edx
	jle	.L488
	.loc 7 819 0
	movl	-788(%rbp), %eax
	movl	%eax, -760(%rbp)
.L488:
	.loc 7 820 0
	movl	-760(%rbp), %eax
	movl	%eax, -752(%rbp)
.L491:
	.loc 7 821 0
	cmpl	$0, -752(%rbp)
	je	.L493
	.loc 7 822 0
	movq	-600(%rbp), %rax
	andl	$3, %eax
	testq	%rax, %rax
	je	.L716
	.loc 7 824 0
	movq	-600(%rbp), %rax
	leaq	1(%rax), %rdx
	movq	%rdx, -600(%rbp)
	movb	$48, (%rax)
	.loc 7 825 0
	subl	$1, -752(%rbp)
	.loc 7 821 0
	jmp	.L491
.L716:
	.loc 7 823 0
	nop
.L493:
	.loc 7 827 0
	cmpl	$3, -752(%rbp)
	jle	.L492
	.loc 7 828 0
	movq	-600(%rbp), %rax
	movl	$808464432, (%rax)
	.loc 7 829 0
	addq	$4, -600(%rbp)
	.loc 7 830 0
	subl	$4, -752(%rbp)
	.loc 7 827 0
	jmp	.L493
.L492:
	.loc 7 832 0
	cmpl	$0, -752(%rbp)
	je	.L494
	.loc 7 833 0
	movq	-600(%rbp), %rax
	leaq	1(%rax), %rdx
	movq	%rdx, -600(%rbp)
	movb	$48, (%rax)
	.loc 7 834 0
	subl	$1, -752(%rbp)
	.loc 7 832 0
	jmp	.L492
.L494:
	.loc 7 836 0
	movl	-784(%rbp), %edx
	movl	-760(%rbp), %eax
	addl	%edx, %eax
	movl	%eax, %edx
	movl	-788(%rbp), %eax
	cmpl	%eax, %edx
	jle	.L495
	.loc 7 837 0
	movl	-788(%rbp), %eax
	subl	-760(%rbp), %eax
	movl	%eax, -784(%rbp)
.L495:
	.loc 7 838 0
	movl	-784(%rbp), %eax
	movl	%eax, -752(%rbp)
.L497:
	.loc 7 839 0
	cmpl	$0, -752(%rbp)
	je	.L496
	.loc 7 840 0
	movq	-624(%rbp), %rax
	leaq	1(%rax), %rdx
	movq	%rdx, -624(%rbp)
	movzbl	(%rax), %edx
	movq	-600(%rbp), %rax
	leaq	1(%rax), %rcx
	movq	%rcx, -600(%rbp)
	movb	%dl, (%rax)
	.loc 7 841 0
	subl	$1, -752(%rbp)
	.loc 7 839 0
	jmp	.L497
.L496:
	.loc 7 843 0
	movl	-788(%rbp), %eax
	movl	%eax, %ecx
	movl	-784(%rbp), %edx
	movl	-760(%rbp), %eax
	addl	%edx, %eax
	subl	%eax, %ecx
	movl	%ecx, %eax
	movl	%eax, -768(%rbp)
	.loc 7 844 0
	movl	$50331649, -756(%rbp)
.LBE95:
	jmp	.L498
.L486:
	.loc 7 846 0
	movl	-764(%rbp), %eax
	andl	$64, %eax
	testl	%eax, %eax
	je	.L499
	.loc 7 846 0 is_stmt 0 discriminator 1
	movl	-780(%rbp), %eax
	movl	$600, %edx
	movl	%edx, %ecx
	subl	%eax, %ecx
	movl	$-1431655765, %edx
	movl	%ecx, %eax
	mull	%edx
	movl	%edx, %eax
	shrl	%eax
	movl	%eax, %edx
	addl	%edx, %edx
	addl	%eax, %edx
	movl	%ecx, %eax
	subl	%edx, %eax
	jmp	.L500
.L499:
	.loc 7 846 0 discriminator 2
	movl	$0, %eax
.L500:
	.loc 7 846 0 discriminator 4
	movl	%eax, -756(%rbp)
	.loc 7 847 0 is_stmt 1 discriminator 4
	movl	-780(%rbp), %eax
	movl	%eax, %edx
	movl	-784(%rbp), %eax
	cmpl	%eax, %edx
	jb	.L501
	.loc 7 849 0
	movl	$0, -760(%rbp)
.L507:
	.loc 7 851 0
	movl	-764(%rbp), %eax
	andl	$64, %eax
	testl	%eax, %eax
	je	.L502
	.loc 7 851 0 is_stmt 0 discriminator 1
	addl	$1, -756(%rbp)
	cmpl	$4, -756(%rbp)
	jne	.L502
	.loc 7 851 0 discriminator 3
	movl	$1, %eax
	jmp	.L503
.L502:
	.loc 7 851 0 discriminator 4
	movl	$0, %eax
.L503:
	.loc 7 851 0 discriminator 6
	testb	%al, %al
	je	.L504
	.loc 7 852 0 is_stmt 1
	movl	$0, -756(%rbp)
	.loc 7 853 0
	movzbl	_ZL12stbsp__comma(%rip), %edx
	movq	-600(%rbp), %rax
	leaq	1(%rax), %rcx
	movq	%rcx, -600(%rbp)
	movb	%dl, (%rax)
	jmp	.L507
.L504:
	.loc 7 855 0
	movq	-624(%rbp), %rdx
	movl	-760(%rbp), %eax
	addq	%rdx, %rax
	movzbl	(%rax), %edx
	movq	-600(%rbp), %rax
	leaq	1(%rax), %rcx
	movq	%rcx, -600(%rbp)
	movb	%dl, (%rax)
	.loc 7 856 0
	addl	$1, -760(%rbp)
	.loc 7 857 0
	movl	-784(%rbp), %eax
	cmpl	%eax, -760(%rbp)
	jnb	.L717
	.loc 7 851 0
	jmp	.L507
.L717:
	.loc 7 858 0
	nop
	.loc 7 861 0
	movl	-780(%rbp), %eax
	cmpl	%eax, -760(%rbp)
	jnb	.L508
	.loc 7 862 0
	movl	-780(%rbp), %eax
	subl	-760(%rbp), %eax
	movl	%eax, -760(%rbp)
	.loc 7 863 0
	movl	-764(%rbp), %eax
	andl	$64, %eax
	testl	%eax, %eax
	jne	.L518
.L512:
	.loc 7 864 0
	cmpl	$0, -760(%rbp)
	je	.L513
	.loc 7 865 0
	movq	-600(%rbp), %rax
	andl	$3, %eax
	testq	%rax, %rax
	je	.L718
	.loc 7 867 0
	movq	-600(%rbp), %rax
	leaq	1(%rax), %rdx
	movq	%rdx, -600(%rbp)
	movb	$48, (%rax)
	.loc 7 868 0
	subl	$1, -760(%rbp)
	.loc 7 864 0
	jmp	.L512
.L718:
	.loc 7 866 0
	nop
.L513:
	.loc 7 870 0
	cmpl	$3, -760(%rbp)
	jbe	.L518
	.loc 7 871 0
	movq	-600(%rbp), %rax
	movl	$808464432, (%rax)
	.loc 7 872 0
	addq	$4, -600(%rbp)
	.loc 7 873 0
	subl	$4, -760(%rbp)
	.loc 7 870 0
	jmp	.L513
.L518:
	.loc 7 876 0
	cmpl	$0, -760(%rbp)
	je	.L508
	.loc 7 877 0
	movl	-764(%rbp), %eax
	andl	$64, %eax
	testl	%eax, %eax
	je	.L514
	.loc 7 877 0 is_stmt 0 discriminator 1
	addl	$1, -756(%rbp)
	cmpl	$4, -756(%rbp)
	jne	.L514
	.loc 7 877 0 discriminator 3
	movl	$1, %eax
	jmp	.L515
.L514:
	.loc 7 877 0 discriminator 4
	movl	$0, %eax
.L515:
	.loc 7 877 0 discriminator 6
	testb	%al, %al
	je	.L516
	.loc 7 878 0 is_stmt 1
	movl	$0, -756(%rbp)
	.loc 7 879 0
	movzbl	_ZL12stbsp__comma(%rip), %edx
	movq	-600(%rbp), %rax
	leaq	1(%rax), %rcx
	movq	%rcx, -600(%rbp)
	movb	%dl, (%rax)
	jmp	.L518
.L516:
	.loc 7 881 0
	movq	-600(%rbp), %rax
	leaq	1(%rax), %rdx
	movq	%rdx, -600(%rbp)
	movb	$48, (%rax)
	.loc 7 882 0
	subl	$1, -760(%rbp)
	.loc 7 876 0
	jmp	.L518
.L508:
	.loc 7 886 0
	movq	-600(%rbp), %rdx
	leaq	-528(%rbp), %rax
	addq	$64, %rax
	subq	%rax, %rdx
	movq	%rdx, %rax
	addl	$50331648, %eax
	movl	%eax, -756(%rbp)
	.loc 7 887 0
	movl	-788(%rbp), %eax
	testl	%eax, %eax
	je	.L498
	.loc 7 888 0
	movzbl	_ZL13stbsp__period(%rip), %edx
	movq	-600(%rbp), %rax
	leaq	1(%rax), %rcx
	movq	%rcx, -600(%rbp)
	movb	%dl, (%rax)
	.loc 7 889 0
	movl	-788(%rbp), %eax
	movl	%eax, -768(%rbp)
	jmp	.L498
.L501:
	.loc 7 893 0
	movl	$0, -760(%rbp)
.L524:
	.loc 7 895 0
	movl	-764(%rbp), %eax
	andl	$64, %eax
	testl	%eax, %eax
	je	.L519
	.loc 7 895 0 is_stmt 0 discriminator 1
	addl	$1, -756(%rbp)
	cmpl	$4, -756(%rbp)
	jne	.L519
	.loc 7 895 0 discriminator 3
	movl	$1, %eax
	jmp	.L520
.L519:
	.loc 7 895 0 discriminator 4
	movl	$0, %eax
.L520:
	.loc 7 895 0 discriminator 6
	testb	%al, %al
	je	.L521
	.loc 7 896 0 is_stmt 1
	movl	$0, -756(%rbp)
	.loc 7 897 0
	movzbl	_ZL12stbsp__comma(%rip), %edx
	movq	-600(%rbp), %rax
	leaq	1(%rax), %rcx
	movq	%rcx, -600(%rbp)
	movb	%dl, (%rax)
	jmp	.L524
.L521:
	.loc 7 899 0
	movq	-624(%rbp), %rdx
	movl	-760(%rbp), %eax
	addq	%rdx, %rax
	movzbl	(%rax), %edx
	movq	-600(%rbp), %rax
	leaq	1(%rax), %rcx
	movq	%rcx, -600(%rbp)
	movb	%dl, (%rax)
	.loc 7 900 0
	addl	$1, -760(%rbp)
	.loc 7 901 0
	movl	-780(%rbp), %eax
	cmpl	%eax, -760(%rbp)
	jnb	.L719
	.loc 7 895 0
	jmp	.L524
.L719:
	.loc 7 902 0
	nop
	.loc 7 905 0
	movq	-600(%rbp), %rdx
	leaq	-528(%rbp), %rax
	addq	$64, %rax
	subq	%rax, %rdx
	movq	%rdx, %rax
	addl	$50331648, %eax
	movl	%eax, -756(%rbp)
	.loc 7 906 0
	movl	-788(%rbp), %eax
	testl	%eax, %eax
	je	.L525
	.loc 7 907 0
	movzbl	_ZL13stbsp__period(%rip), %edx
	movq	-600(%rbp), %rax
	leaq	1(%rax), %rcx
	movq	%rcx, -600(%rbp)
	movb	%dl, (%rax)
.L525:
	.loc 7 908 0
	movl	-784(%rbp), %eax
	movl	-780(%rbp), %edx
	subl	%edx, %eax
	movl	%eax, %edx
	movl	-788(%rbp), %eax
	cmpl	%eax, %edx
	jbe	.L528
	.loc 7 909 0
	movl	-788(%rbp), %edx
	movl	-780(%rbp), %eax
	addl	%edx, %eax
	movl	%eax, -784(%rbp)
.L528:
	.loc 7 910 0
	movl	-784(%rbp), %eax
	cmpl	%eax, -760(%rbp)
	jnb	.L527
	.loc 7 911 0
	movq	-624(%rbp), %rdx
	movl	-760(%rbp), %eax
	addq	%rdx, %rax
	movzbl	(%rax), %edx
	movq	-600(%rbp), %rax
	leaq	1(%rax), %rcx
	movq	%rcx, -600(%rbp)
	movb	%dl, (%rax)
	.loc 7 912 0
	addl	$1, -760(%rbp)
	.loc 7 910 0
	jmp	.L528
.L527:
	.loc 7 914 0
	movl	-780(%rbp), %eax
	movl	%eax, %edx
	movl	-784(%rbp), %eax
	subl	%eax, %edx
	movl	-788(%rbp), %eax
	addl	%edx, %eax
	movl	%eax, -768(%rbp)
.L498:
.LBE94:
	.loc 7 917 0
	movl	$0, -788(%rbp)
.LBB96:
	.loc 7 920 0
	movl	-764(%rbp), %eax
	andl	$256, %eax
	testl	%eax, %eax
	je	.L720
.LBB97:
	.loc 7 922 0
	movb	$1, -789(%rbp)
	.loc 7 923 0
	movl	-764(%rbp), %eax
	andl	$1024, %eax
	testl	%eax, %eax
	je	.L529
	.loc 7 924 0
	movb	$0, -789(%rbp)
.L529:
	.loc 7 925 0
	movzbl	-789(%rbp), %eax
	movb	%al, -536(%rbp)
	.loc 7 926 0
	movb	$32, -535(%rbp)
	.loc 7 928 0
	movl	-764(%rbp), %eax
	shrl	$24, %eax
	testl	%eax, %eax
	je	.L473
	.loc 7 929 0
	movl	-764(%rbp), %eax
	andl	$2048, %eax
	testl	%eax, %eax
	je	.L531
	.loc 7 930 0
	movl	-764(%rbp), %eax
	shrl	$24, %eax
	movl	%eax, %edx
	movsbl	-789(%rbp), %eax
	leal	1(%rax), %ecx
	movl	%edx, %edx
	leaq	.LC17(%rip), %rax
	movzbl	(%rdx,%rax), %edx
	movslq	%ecx, %rax
	movb	%dl, -536(%rbp,%rax)
	jmp	.L532
.L531:
	.loc 7 932 0
	movl	-764(%rbp), %eax
	shrl	$24, %eax
	movl	%eax, %edx
	movsbl	-789(%rbp), %eax
	leal	1(%rax), %ecx
	movl	%edx, %edx
	leaq	.LC18(%rip), %rax
	movzbl	(%rdx,%rax), %edx
	movslq	%ecx, %rax
	movb	%dl, -536(%rbp,%rax)
.L532:
	.loc 7 933 0
	movzbl	-789(%rbp), %eax
	addl	$1, %eax
	movb	%al, -789(%rbp)
	.loc 7 935 0
	movl	-764(%rbp), %eax
	andl	$2048, %eax
	testl	%eax, %eax
	je	.L533
	.loc 7 935 0 is_stmt 0 discriminator 1
	movl	-764(%rbp), %eax
	andl	$4096, %eax
	testl	%eax, %eax
	jne	.L533
	.loc 7 936 0 is_stmt 1
	movsbl	-789(%rbp), %eax
	addl	$1, %eax
	cltq
	movb	$105, -536(%rbp,%rax)
	.loc 7 937 0
	movzbl	-789(%rbp), %eax
	addl	$1, %eax
	movb	%al, -789(%rbp)
.L533:
	.loc 7 939 0
	movzbl	-789(%rbp), %eax
	movb	%al, -536(%rbp)
	jmp	.L473
.L720:
.LBE97:
.LBE96:
	.loc 7 944 0
	nop
.L473:
	.loc 7 946 0
	movq	-600(%rbp), %rdx
	leaq	-528(%rbp), %rax
	addq	$64, %rax
	subq	%rax, %rdx
	movq	%rdx, %rax
	movl	%eax, -784(%rbp)
	.loc 7 947 0
	leaq	-528(%rbp), %rax
	addq	$64, %rax
	movq	%rax, -600(%rbp)
	.loc 7 948 0
	jmp	.L401
.L376:
	.loc 7 953 0
	movq	-608(%rbp), %rax
	movzbl	(%rax), %eax
	cmpb	$66, %al
	jne	.L534
	.loc 7 953 0 is_stmt 0 discriminator 1
	leaq	_ZZ16stbsp_vsprintfcbE4hexu(%rip), %rax
	jmp	.L535
.L534:
	.loc 7 953 0 discriminator 2
	leaq	_ZZ16stbsp_vsprintfcbE3hex(%rip), %rax
.L535:
	.loc 7 953 0 discriminator 4
	movq	%rax, -592(%rbp)
	.loc 7 954 0 is_stmt 1 discriminator 4
	movb	$0, -544(%rbp)
	.loc 7 955 0 discriminator 4
	movl	-764(%rbp), %eax
	andl	$8, %eax
	testl	%eax, %eax
	je	.L536
	.loc 7 956 0
	movb	$2, -544(%rbp)
	.loc 7 957 0
	movb	$48, -543(%rbp)
	.loc 7 958 0
	movq	-592(%rbp), %rax
	addq	$11, %rax
	movzbl	(%rax), %eax
	movb	%al, -542(%rbp)
.L536:
	.loc 7 960 0
	movl	$384, -784(%rbp)
	.loc 7 961 0
	jmp	.L537
.L384:
	.loc 7 964 0
	leaq	_ZZ16stbsp_vsprintfcbE4hexu(%rip), %rax
	movq	%rax, -592(%rbp)
	.loc 7 965 0
	movb	$0, -544(%rbp)
	.loc 7 966 0
	movl	-764(%rbp), %eax
	andl	$8, %eax
	testl	%eax, %eax
	je	.L538
	.loc 7 967 0
	movb	$1, -544(%rbp)
	.loc 7 968 0
	movb	$48, -543(%rbp)
.L538:
	.loc 7 970 0
	movl	$816, -784(%rbp)
	.loc 7 971 0
	jmp	.L537
.L385:
	.loc 7 974 0
	orl	$32, -764(%rbp)
	.loc 7 975 0
	movl	$16, -788(%rbp)
	.loc 7 976 0
	andl	$-17, -764(%rbp)
.L379:
	.loc 7 981 0
	movq	-608(%rbp), %rax
	movzbl	(%rax), %eax
	cmpb	$88, %al
	jne	.L539
	.loc 7 981 0 is_stmt 0 discriminator 1
	leaq	_ZZ16stbsp_vsprintfcbE4hexu(%rip), %rax
	jmp	.L540
.L539:
	.loc 7 981 0 discriminator 2
	leaq	_ZZ16stbsp_vsprintfcbE3hex(%rip), %rax
.L540:
	.loc 7 981 0 discriminator 4
	movq	%rax, -592(%rbp)
	.loc 7 982 0 is_stmt 1 discriminator 4
	movl	$1088, -784(%rbp)
	.loc 7 983 0 discriminator 4
	movb	$0, -544(%rbp)
	.loc 7 984 0 discriminator 4
	movl	-764(%rbp), %eax
	andl	$8, %eax
	testl	%eax, %eax
	je	.L721
	.loc 7 985 0
	movb	$2, -544(%rbp)
	.loc 7 986 0
	movb	$48, -543(%rbp)
	.loc 7 987 0
	movq	-592(%rbp), %rax
	addq	$16, %rax
	movzbl	(%rax), %eax
	movb	%al, -542(%rbp)
	jmp	.L537
.L721:
	.loc 7 989 0
	nop
.L537:
	.loc 7 991 0
	movl	-764(%rbp), %eax
	andl	$32, %eax
	testl	%eax, %eax
	je	.L541
	.loc 7 992 0
	movq	-840(%rbp), %rax
	movl	(%rax), %eax
	cmpl	$47, %eax
	ja	.L542
	movq	-840(%rbp), %rax
	movq	16(%rax), %rdx
	movq	-840(%rbp), %rax
	movl	(%rax), %eax
	movl	%eax, %eax
	addq	%rdx, %rax
	movq	-840(%rbp), %rdx
	movl	(%rdx), %edx
	leal	8(%rdx), %ecx
	movq	-840(%rbp), %rdx
	movl	%ecx, (%rdx)
	jmp	.L543
.L542:
	movq	-840(%rbp), %rax
	movq	8(%rax), %rax
	leaq	8(%rax), %rcx
	movq	-840(%rbp), %rdx
	movq	%rcx, 8(%rdx)
.L543:
	movq	(%rax), %rax
	.loc 7 992 0
	movq	%rax, -632(%rbp)
	jmp	.L544
.L541:
	.loc 7 994 0
	movq	-840(%rbp), %rax
	movl	(%rax), %eax
	cmpl	$47, %eax
	ja	.L545
	movq	-840(%rbp), %rax
	movq	16(%rax), %rdx
	movq	-840(%rbp), %rax
	movl	(%rax), %eax
	movl	%eax, %eax
	addq	%rdx, %rax
	movq	-840(%rbp), %rdx
	movl	(%rdx), %edx
	leal	8(%rdx), %ecx
	movq	-840(%rbp), %rdx
	movl	%ecx, (%rdx)
	jmp	.L546
.L545:
	movq	-840(%rbp), %rax
	movq	8(%rax), %rax
	leaq	8(%rax), %rcx
	movq	-840(%rbp), %rdx
	movq	%rcx, 8(%rdx)
.L546:
	movl	(%rax), %eax
	movl	%eax, %eax
	.loc 7 994 0
	movq	%rax, -632(%rbp)
.L544:
	.loc 7 996 0
	leaq	-528(%rbp), %rax
	addq	$512, %rax
	movq	%rax, -600(%rbp)
	.loc 7 997 0
	movl	$0, -780(%rbp)
	.loc 7 999 0
	movb	$0, -536(%rbp)
	.loc 7 1000 0
	movq	-632(%rbp), %rax
	testq	%rax, %rax
	jne	.L551
	.loc 7 1001 0
	movb	$0, -544(%rbp)
	.loc 7 1002 0
	movl	-788(%rbp), %eax
	testl	%eax, %eax
	jne	.L551
	.loc 7 1003 0
	movl	$0, -784(%rbp)
	.loc 7 1004 0
	movl	-784(%rbp), %eax
	shrl	$4, %eax
	sall	$24, %eax
	andl	$251658240, %eax
	movl	%eax, -756(%rbp)
	.loc 7 1005 0
	jmp	.L401
.L551:
	.loc 7 1010 0
	movl	-784(%rbp), %eax
	shrl	$8, %eax
	movl	$1, %edx
	movl	%eax, %ecx
	sall	%cl, %edx
	movl	%edx, %eax
	subl	$1, %eax
	movslq	%eax, %rdx
	movq	-632(%rbp), %rax
	andq	%rax, %rdx
	movq	-592(%rbp), %rax
	addq	%rdx, %rax
	movzbl	(%rax), %edx
	subq	$1, -600(%rbp)
	movq	-600(%rbp), %rax
	movb	%dl, (%rax)
	.loc 7 1011 0
	movq	-632(%rbp), %rdx
	movl	-784(%rbp), %eax
	shrl	$8, %eax
	movl	%eax, %ecx
	shrq	%cl, %rdx
	movq	%rdx, %rax
	movq	%rax, -632(%rbp)
	.loc 7 1012 0
	movq	-632(%rbp), %rax
	testq	%rax, %rax
	jne	.L548
	.loc 7 1012 0 is_stmt 0 discriminator 1
	leaq	-528(%rbp), %rax
	addq	$512, %rax
	movq	%rax, %rdx
	movq	-600(%rbp), %rax
	subq	%rax, %rdx
	movq	%rdx, %rax
	movl	%eax, %edx
	movl	-788(%rbp), %eax
	cmpl	%eax, %edx
	jge	.L722
.L548:
	.loc 7 1014 0 is_stmt 1
	movl	-764(%rbp), %eax
	andl	$64, %eax
	testl	%eax, %eax
	je	.L551
	.loc 7 1015 0
	movl	-784(%rbp), %eax
	addl	$1, %eax
	movl	%eax, -784(%rbp)
	.loc 7 1016 0
	movl	-784(%rbp), %eax
	shrl	$4, %eax
	movl	%eax, %edx
	movl	-784(%rbp), %eax
	xorl	%edx, %eax
	andl	$15, %eax
	testl	%eax, %eax
	jne	.L551
	.loc 7 1017 0
	movl	-784(%rbp), %eax
	andl	$-16, %eax
	movl	%eax, -784(%rbp)
	.loc 7 1018 0
	movzbl	_ZL12stbsp__comma(%rip), %edx
	subq	$1, -600(%rbp)
	movq	-600(%rbp), %rax
	movb	%dl, (%rax)
	.loc 7 1010 0
	jmp	.L551
.L722:
	.loc 7 1013 0
	nop
	.loc 7 1023 0
	leaq	-528(%rbp), %rax
	addq	$512, %rax
	movq	%rax, %rdx
	movq	-600(%rbp), %rax
	subq	%rax, %rdx
	movq	%rdx, %rax
	movl	%eax, %edx
	movl	-784(%rbp), %eax
	shrl	$4, %eax
	sall	$24, %eax
	andl	$251658240, %eax
	addl	%edx, %eax
	movl	%eax, -756(%rbp)
	.loc 7 1025 0
	leaq	-528(%rbp), %rax
	addq	$512, %rax
	movq	%rax, %rdx
	movq	-600(%rbp), %rax
	subq	%rax, %rdx
	movq	%rdx, %rax
	movl	%eax, -784(%rbp)
	.loc 7 1027 0
	jmp	.L401
.L381:
.LBB98:
	.loc 7 1033 0
	movl	-764(%rbp), %eax
	andl	$32, %eax
	testl	%eax, %eax
	je	.L552
.LBB99:
	.loc 7 1034 0
	movq	-840(%rbp), %rax
	movl	(%rax), %eax
	cmpl	$47, %eax
	ja	.L553
	movq	-840(%rbp), %rax
	movq	16(%rax), %rdx
	movq	-840(%rbp), %rax
	movl	(%rax), %eax
	movl	%eax, %eax
	addq	%rdx, %rax
	movq	-840(%rbp), %rdx
	movl	(%rdx), %edx
	leal	8(%rdx), %ecx
	movq	-840(%rbp), %rdx
	movl	%ecx, (%rdx)
	jmp	.L554
.L553:
	movq	-840(%rbp), %rax
	movq	8(%rax), %rax
	leaq	8(%rax), %rcx
	movq	-840(%rbp), %rdx
	movq	%rcx, 8(%rdx)
.L554:
	movq	(%rax), %rax
	movq	%rax, -552(%rbp)
	.loc 7 1035 0
	movq	-552(%rbp), %rax
	movq	%rax, -632(%rbp)
	.loc 7 1036 0
	movq	-608(%rbp), %rax
	movzbl	(%rax), %eax
	cmpb	$117, %al
	je	.L556
	.loc 7 1036 0 is_stmt 0 discriminator 1
	cmpq	$0, -552(%rbp)
	jns	.L556
	.loc 7 1037 0 is_stmt 1
	movq	-552(%rbp), %rax
	negq	%rax
	movq	%rax, -632(%rbp)
	.loc 7 1038 0
	orl	$128, -764(%rbp)
	jmp	.L556
.L552:
.LBE99:
.LBB100:
	.loc 7 1041 0
	movq	-840(%rbp), %rax
	movl	(%rax), %eax
	cmpl	$47, %eax
	ja	.L557
	movq	-840(%rbp), %rax
	movq	16(%rax), %rdx
	movq	-840(%rbp), %rax
	movl	(%rax), %eax
	movl	%eax, %eax
	addq	%rdx, %rax
	movq	-840(%rbp), %rdx
	movl	(%rdx), %edx
	leal	8(%rdx), %ecx
	movq	-840(%rbp), %rdx
	movl	%ecx, (%rdx)
	jmp	.L558
.L557:
	movq	-840(%rbp), %rax
	movq	8(%rax), %rax
	leaq	8(%rax), %rcx
	movq	-840(%rbp), %rdx
	movq	%rcx, 8(%rdx)
.L558:
	movl	(%rax), %eax
	movl	%eax, -712(%rbp)
	.loc 7 1042 0
	movl	-712(%rbp), %eax
	movl	%eax, %eax
	movq	%rax, -632(%rbp)
	.loc 7 1043 0
	movq	-608(%rbp), %rax
	movzbl	(%rax), %eax
	cmpb	$117, %al
	je	.L556
	.loc 7 1043 0 is_stmt 0 discriminator 1
	cmpl	$0, -712(%rbp)
	jns	.L556
	.loc 7 1044 0 is_stmt 1
	movl	-712(%rbp), %eax
	negl	%eax
	movl	%eax, %eax
	movq	%rax, -632(%rbp)
	.loc 7 1045 0
	orl	$128, -764(%rbp)
.L556:
.LBE100:
.LBE98:
	.loc 7 1050 0
	movl	-764(%rbp), %eax
	andl	$256, %eax
	testl	%eax, %eax
	je	.L559
	.loc 7 1051 0
	movq	-632(%rbp), %rax
	cmpq	$1023, %rax
	ja	.L560
	.loc 7 1052 0
	movl	$0, -788(%rbp)
	jmp	.L561
.L560:
	.loc 7 1053 0
	movl	-788(%rbp), %eax
	cmpl	$-1, %eax
	jne	.L561
	.loc 7 1054 0
	movl	$1, -788(%rbp)
.L561:
	.loc 7 1055 0
	movq	-632(%rbp), %rax
	cvtsi2sdq	%rax, %xmm0
	movsd	%xmm0, -584(%rbp)
	.loc 7 1056 0
	jmp	.L476
.L559:
	.loc 7 1061 0
	leaq	-528(%rbp), %rax
	addq	$512, %rax
	movq	%rax, -600(%rbp)
	.loc 7 1062 0
	movl	$0, -784(%rbp)
.L580:
.LBB101:
.LBB102:
	.loc 7 1066 0
	movq	-600(%rbp), %rax
	subq	$8, %rax
	movq	%rax, -568(%rbp)
	.loc 7 1067 0
	movq	-632(%rbp), %rax
	cmpq	$99999999, %rax
	jbe	.L562
	.loc 7 1068 0
	movq	-632(%rbp), %rcx
	movabsq	$-6067343680855748867, %rdx
	movq	%rcx, %rax
	mulq	%rdx
	movq	%rdx, %rax
	shrq	$26, %rax
	imulq	$100000000, %rax, %rax
	subq	%rax, %rcx
	movq	%rcx, %rax
	movl	%eax, -760(%rbp)
	.loc 7 1069 0
	movq	-632(%rbp), %rax
	movabsq	$-6067343680855748867, %rdx
	mulq	%rdx
	movq	%rdx, %rax
	shrq	$26, %rax
	movq	%rax, -632(%rbp)
	jmp	.L563
.L562:
	.loc 7 1071 0
	movq	-632(%rbp), %rax
	movl	%eax, -760(%rbp)
	.loc 7 1072 0
	movq	$0, -632(%rbp)
.L563:
	.loc 7 1074 0
	movl	-764(%rbp), %eax
	andl	$64, %eax
	testl	%eax, %eax
	jne	.L571
.L565:
	.loc 7 1076 0
	subq	$2, -600(%rbp)
	.loc 7 1077 0
	movl	-760(%rbp), %ecx
	movl	$1374389535, %edx
	movl	%ecx, %eax
	mull	%edx
	movl	%edx, %eax
	shrl	$5, %eax
	imull	$100, %eax, %eax
	subl	%eax, %ecx
	movl	%ecx, %eax
	addl	%eax, %eax
	movl	%eax, %edx
	leaq	_ZL16stbsp__digitpair(%rip), %rax
	addq	%rdx, %rax
	addq	$2, %rax
	movzwl	(%rax), %edx
	movq	-600(%rbp), %rax
	movw	%dx, (%rax)
	.loc 7 1078 0
	movl	-760(%rbp), %eax
	movl	$1374389535, %edx
	mull	%edx
	movl	%edx, %eax
	shrl	$5, %eax
	movl	%eax, -760(%rbp)
	.loc 7 1079 0
	cmpl	$0, -760(%rbp)
	je	.L571
	.loc 7 1075 0
	jmp	.L565
.L571:
	.loc 7 1081 0
	cmpl	$0, -760(%rbp)
	je	.L566
	.loc 7 1082 0
	movl	-764(%rbp), %eax
	andl	$64, %eax
	testl	%eax, %eax
	je	.L567
	.loc 7 1082 0 is_stmt 0 discriminator 1
	movl	-784(%rbp), %eax
	leal	1(%rax), %edx
	movl	%edx, -784(%rbp)
	cmpl	$3, %eax
	jne	.L567
	.loc 7 1082 0 discriminator 3
	movl	$1, %eax
	jmp	.L568
.L567:
	.loc 7 1082 0 discriminator 4
	movl	$0, %eax
.L568:
	.loc 7 1082 0 discriminator 6
	testb	%al, %al
	je	.L569
	.loc 7 1083 0 is_stmt 1
	movl	$0, -784(%rbp)
	.loc 7 1084 0
	movzbl	_ZL12stbsp__comma(%rip), %edx
	subq	$1, -600(%rbp)
	movq	-600(%rbp), %rax
	movb	%dl, (%rax)
	.loc 7 1085 0
	subq	$1, -568(%rbp)
	jmp	.L571
.L569:
	.loc 7 1087 0
	movl	-760(%rbp), %ecx
	movl	$-858993459, %edx
	movl	%ecx, %eax
	mull	%edx
	shrl	$3, %edx
	movl	%edx, %eax
	sall	$2, %eax
	addl	%edx, %eax
	addl	%eax, %eax
	subl	%eax, %ecx
	movl	%ecx, %edx
	movl	%edx, %eax
	addl	$48, %eax
	movl	%eax, %edx
	subq	$1, -600(%rbp)
	movq	-600(%rbp), %rax
	movb	%dl, (%rax)
	.loc 7 1088 0
	movl	-760(%rbp), %eax
	movl	$-858993459, %edx
	mull	%edx
	movl	%edx, %eax
	shrl	$3, %eax
	movl	%eax, -760(%rbp)
	.loc 7 1081 0
	jmp	.L571
.L566:
	.loc 7 1091 0
	movq	-632(%rbp), %rax
	testq	%rax, %rax
	jne	.L572
	.loc 7 1092 0
	movq	-600(%rbp), %rax
	movzbl	(%rax), %eax
	cmpb	$48, %al
	jne	.L723
	.loc 7 1092 0 is_stmt 0 discriminator 1
	leaq	-528(%rbp), %rax
	addq	$512, %rax
	cmpq	%rax, -600(%rbp)
	je	.L723
	.loc 7 1093 0 is_stmt 1
	addq	$1, -600(%rbp)
	.loc 7 1094 0
	jmp	.L723
.L572:
	.loc 7 1096 0
	movq	-600(%rbp), %rax
	cmpq	-568(%rbp), %rax
	je	.L580
	.loc 7 1097 0
	movl	-764(%rbp), %eax
	andl	$64, %eax
	testl	%eax, %eax
	je	.L576
	.loc 7 1097 0 is_stmt 0 discriminator 1
	movl	-784(%rbp), %eax
	leal	1(%rax), %edx
	movl	%edx, -784(%rbp)
	cmpl	$3, %eax
	jne	.L576
	.loc 7 1097 0 discriminator 3
	movl	$1, %eax
	jmp	.L577
.L576:
	.loc 7 1097 0 discriminator 4
	movl	$0, %eax
.L577:
	.loc 7 1097 0 discriminator 6
	testb	%al, %al
	je	.L578
	.loc 7 1098 0 is_stmt 1
	movl	$0, -784(%rbp)
	.loc 7 1099 0
	movzbl	_ZL12stbsp__comma(%rip), %edx
	subq	$1, -600(%rbp)
	movq	-600(%rbp), %rax
	movb	%dl, (%rax)
	.loc 7 1100 0
	subq	$1, -568(%rbp)
	jmp	.L572
.L578:
	.loc 7 1102 0
	subq	$1, -600(%rbp)
	movq	-600(%rbp), %rax
	movb	$48, (%rax)
	.loc 7 1096 0
	jmp	.L572
.L723:
	.loc 7 1094 0
	nop
.LBE102:
.LBE101:
	.loc 7 1106 0
	movb	$0, -536(%rbp)
	.loc 7 1107 0
	leaq	-544(%rbp), %rdx
	movl	-764(%rbp), %eax
	movq	%rdx, %rsi
	movl	%eax, %edi
	call	_ZL16stbsp__lead_signjPc
	.loc 7 1110 0
	leaq	-528(%rbp), %rax
	addq	$512, %rax
	movq	%rax, %rdx
	movq	-600(%rbp), %rax
	subq	%rax, %rdx
	movq	%rdx, %rax
	movl	%eax, -784(%rbp)
	.loc 7 1111 0
	movl	-784(%rbp), %eax
	testl	%eax, %eax
	jne	.L581
	.loc 7 1112 0
	subq	$1, -600(%rbp)
	movq	-600(%rbp), %rax
	movb	$48, (%rax)
	.loc 7 1113 0
	movl	$1, -784(%rbp)
.L581:
	.loc 7 1115 0
	movl	-784(%rbp), %eax
	addl	$50331648, %eax
	movl	%eax, -756(%rbp)
	.loc 7 1116 0
	movl	-788(%rbp), %eax
	testl	%eax, %eax
	jns	.L724
	.loc 7 1117 0
	movl	$0, -788(%rbp)
	jmp	.L401
.L724:
	.loc 7 1119 0
	nop
.L401:
	.loc 7 1121 0
	movl	-788(%rbp), %eax
	movl	-784(%rbp), %edx
	cmpl	%edx, %eax
	jge	.L582
	.loc 7 1122 0
	movl	-784(%rbp), %eax
	movl	%eax, -788(%rbp)
.L582:
	.loc 7 1123 0
	movzbl	-544(%rbp), %eax
	movsbl	%al, %edx
	movl	-788(%rbp), %eax
	addl	%eax, %edx
	movzbl	-536(%rbp), %eax
	movsbl	%al, %eax
	addl	%eax, %edx
	movl	-768(%rbp), %eax
	addl	%edx, %eax
	movl	%eax, -760(%rbp)
	.loc 7 1124 0
	movl	-760(%rbp), %eax
	cmpl	%eax, -772(%rbp)
	jge	.L583
	.loc 7 1125 0
	movl	-760(%rbp), %eax
	movl	%eax, -772(%rbp)
.L583:
	.loc 7 1126 0
	movl	-772(%rbp), %eax
	subl	-760(%rbp), %eax
	movl	%eax, -772(%rbp)
	.loc 7 1127 0
	movl	-788(%rbp), %eax
	movl	%eax, %edx
	movl	-784(%rbp), %eax
	subl	%eax, %edx
	movl	%edx, %eax
	movl	%eax, -788(%rbp)
	.loc 7 1130 0
	movl	-764(%rbp), %eax
	andl	$1, %eax
	testl	%eax, %eax
	jne	.L584
	.loc 7 1131 0
	movl	-764(%rbp), %eax
	andl	$16, %eax
	testl	%eax, %eax
	je	.L585
	.loc 7 1133 0
	movl	-788(%rbp), %eax
	cmpl	%eax, -772(%rbp)
	jle	.L586
	.loc 7 1133 0 is_stmt 0 discriminator 1
	movl	-772(%rbp), %eax
	jmp	.L587
.L586:
	.loc 7 1133 0 discriminator 2
	movl	-788(%rbp), %eax
.L587:
	.loc 7 1133 0 discriminator 4
	movl	%eax, -788(%rbp)
	.loc 7 1134 0 is_stmt 1 discriminator 4
	movl	$0, -772(%rbp)
	jmp	.L584
.L585:
	.loc 7 1136 0
	andl	$-65, -764(%rbp)
.L584:
.LBB103:
	.loc 7 1141 0
	movl	-788(%rbp), %edx
	movl	-772(%rbp), %eax
	addl	%edx, %eax
	testl	%eax, %eax
	je	.L589
.LBB104:
.LBB105:
	.loc 7 1146 0
	movl	-764(%rbp), %eax
	andl	$1, %eax
	testl	%eax, %eax
	jne	.L590
.L603:
.LBB106:
	.loc 7 1147 0
	cmpl	$0, -772(%rbp)
	jle	.L590
.LBB107:
	.loc 7 1148 0
	movl	-772(%rbp), %eax
	movl	%eax, -748(%rbp)
.LBB108:
	cmpq	$0, -808(%rbp)
	je	.L592
.LBB109:
	.loc 7 1148 0 is_stmt 0 discriminator 1
	movq	-616(%rbp), %rdx
	movq	-824(%rbp), %rax
	subq	%rax, %rdx
	movq	%rdx, %rax
	movl	$512, %edx
	subl	%eax, %edx
	movl	%edx, %eax
	movl	%eax, -708(%rbp)
	movl	-748(%rbp), %eax
	cmpl	-708(%rbp), %eax
	jle	.L592
	.loc 7 1148 0 discriminator 2
	movl	-708(%rbp), %eax
	movl	%eax, -748(%rbp)
.L592:
.LBE109:
.LBE108:
	.loc 7 1149 0 is_stmt 1
	movl	-748(%rbp), %eax
	subl	%eax, -772(%rbp)
.L596:
	.loc 7 1150 0
	cmpl	$0, -748(%rbp)
	je	.L598
	.loc 7 1151 0
	movq	-616(%rbp), %rax
	andl	$3, %eax
	testq	%rax, %rax
	je	.L725
	.loc 7 1153 0
	movq	-616(%rbp), %rax
	leaq	1(%rax), %rdx
	movq	%rdx, -616(%rbp)
	movb	$32, (%rax)
	.loc 7 1154 0
	subl	$1, -748(%rbp)
	.loc 7 1150 0
	jmp	.L596
.L725:
	.loc 7 1152 0
	nop
.L598:
	.loc 7 1156 0
	cmpl	$3, -748(%rbp)
	jle	.L597
	.loc 7 1157 0
	movq	-616(%rbp), %rax
	movl	$538976288, (%rax)
	.loc 7 1158 0
	addq	$4, -616(%rbp)
	.loc 7 1159 0
	subl	$4, -748(%rbp)
	.loc 7 1156 0
	jmp	.L598
.L597:
	.loc 7 1161 0
	cmpl	$0, -748(%rbp)
	je	.L599
	.loc 7 1162 0
	movq	-616(%rbp), %rax
	leaq	1(%rax), %rdx
	movq	%rdx, -616(%rbp)
	movb	$32, (%rax)
	.loc 7 1163 0
	subl	$1, -748(%rbp)
	.loc 7 1161 0
	jmp	.L597
.L599:
.LBB110:
.LBB111:
	.loc 7 1165 0
	cmpq	$0, -808(%rbp)
	je	.L603
.LBB112:
.LBB113:
	.loc 7 1165 0 is_stmt 0 discriminator 1
	movq	-616(%rbp), %rdx
	movq	-824(%rbp), %rax
	subq	%rax, %rdx
	movq	%rdx, %rax
	movl	%eax, -704(%rbp)
	movl	-704(%rbp), %eax
	addl	$1, %eax
	cmpl	$511, %eax
	jle	.L603
	.loc 7 1165 0 discriminator 2
	movl	-704(%rbp), %eax
	addl	%eax, -776(%rbp)
	movl	-704(%rbp), %edx
	movq	-816(%rbp), %rsi
	movq	-824(%rbp), %rcx
	movq	-808(%rbp), %rax
	movq	%rcx, %rdi
	call	*%rax
.LVL1:
	movq	%rax, -824(%rbp)
	movq	-824(%rbp), %rax
	movq	%rax, -616(%rbp)
	cmpq	$0, -616(%rbp)
	sete	%al
	testb	%al, %al
	jne	.L726
.LBE113:
.LBE112:
.LBE111:
.LBE110:
.LBE107:
	.loc 7 1147 0 is_stmt 1 discriminator 5
	jmp	.L603
.L590:
.LBE106:
.LBE105:
	.loc 7 1169 0
	leaq	-544(%rbp), %rax
	addq	$1, %rax
	movq	%rax, -624(%rbp)
.L611:
	.loc 7 1170 0
	movzbl	-544(%rbp), %eax
	testb	%al, %al
	je	.L604
.LBB120:
	.loc 7 1171 0
	movzbl	-544(%rbp), %eax
	movsbl	%al, %eax
	movl	%eax, -748(%rbp)
.LBB121:
	cmpq	$0, -808(%rbp)
	je	.L605
.LBB122:
	.loc 7 1171 0 is_stmt 0 discriminator 1
	movq	-616(%rbp), %rdx
	movq	-824(%rbp), %rax
	subq	%rax, %rdx
	movq	%rdx, %rax
	movl	$512, %edx
	subl	%eax, %edx
	movl	%edx, %eax
	movl	%eax, -700(%rbp)
	movl	-748(%rbp), %eax
	cmpl	-700(%rbp), %eax
	jle	.L605
	.loc 7 1171 0 discriminator 2
	movl	-700(%rbp), %eax
	movl	%eax, -748(%rbp)
.L605:
.LBE122:
.LBE121:
	.loc 7 1172 0 is_stmt 1
	movzbl	-544(%rbp), %eax
	movl	%eax, %edx
	movl	-748(%rbp), %eax
	subl	%eax, %edx
	movl	%edx, %eax
	movb	%al, -544(%rbp)
.L608:
	.loc 7 1173 0
	cmpl	$0, -748(%rbp)
	je	.L607
	.loc 7 1174 0
	movq	-624(%rbp), %rax
	leaq	1(%rax), %rdx
	movq	%rdx, -624(%rbp)
	movzbl	(%rax), %edx
	movq	-616(%rbp), %rax
	leaq	1(%rax), %rcx
	movq	%rcx, -616(%rbp)
	movb	%dl, (%rax)
	.loc 7 1175 0
	subl	$1, -748(%rbp)
	.loc 7 1173 0
	jmp	.L608
.L607:
.LBB123:
.LBB124:
	.loc 7 1177 0
	cmpq	$0, -808(%rbp)
	je	.L611
.LBB125:
.LBB126:
	.loc 7 1177 0 is_stmt 0 discriminator 1
	movq	-616(%rbp), %rdx
	movq	-824(%rbp), %rax
	subq	%rax, %rdx
	movq	%rdx, %rax
	movl	%eax, -696(%rbp)
	movl	-696(%rbp), %eax
	addl	$1, %eax
	cmpl	$511, %eax
	jle	.L611
	.loc 7 1177 0 discriminator 2
	movl	-696(%rbp), %eax
	addl	%eax, -776(%rbp)
	movl	-696(%rbp), %edx
	movq	-816(%rbp), %rsi
	movq	-824(%rbp), %rcx
	movq	-808(%rbp), %rax
	movq	%rcx, %rdi
	call	*%rax
.LVL2:
	movq	%rax, -824(%rbp)
	movq	-824(%rbp), %rax
	movq	%rax, -616(%rbp)
	cmpq	$0, -616(%rbp)
	sete	%al
	testb	%al, %al
	jne	.L727
.LBE126:
.LBE125:
.LBE124:
.LBE123:
.LBE120:
	.loc 7 1170 0 is_stmt 1 discriminator 7
	jmp	.L611
.L604:
	.loc 7 1181 0
	movl	-756(%rbp), %eax
	shrl	$24, %eax
	movl	%eax, -692(%rbp)
	.loc 7 1182 0
	andl	$16777215, -756(%rbp)
	.loc 7 1183 0
	movl	-764(%rbp), %eax
	andl	$64, %eax
	testl	%eax, %eax
	je	.L612
	.loc 7 1183 0 is_stmt 0 discriminator 1
	movl	-788(%rbp), %eax
	movl	%eax, %edx
	movl	-756(%rbp), %eax
	addl	%edx, %eax
	movl	-692(%rbp), %edx
	leal	1(%rdx), %ecx
	movl	$0, %edx
	divl	%ecx
	movl	-692(%rbp), %eax
	subl	%edx, %eax
	jmp	.L613
.L612:
	.loc 7 1183 0 discriminator 2
	movl	$0, %eax
.L613:
	.loc 7 1183 0 discriminator 4
	movl	%eax, -756(%rbp)
.L630:
	.loc 7 1184 0 is_stmt 1
	movl	-788(%rbp), %eax
	testl	%eax, %eax
	jle	.L589
.LBB131:
	.loc 7 1185 0
	movl	-788(%rbp), %eax
	movl	%eax, -748(%rbp)
.LBB132:
	cmpq	$0, -808(%rbp)
	je	.L615
.LBB133:
	.loc 7 1185 0 is_stmt 0 discriminator 1
	movq	-616(%rbp), %rdx
	movq	-824(%rbp), %rax
	subq	%rax, %rdx
	movq	%rdx, %rax
	movl	$512, %edx
	subl	%eax, %edx
	movl	%edx, %eax
	movl	%eax, -688(%rbp)
	movl	-748(%rbp), %eax
	cmpl	-688(%rbp), %eax
	jle	.L615
	.loc 7 1185 0 discriminator 2
	movl	-688(%rbp), %eax
	movl	%eax, -748(%rbp)
.L615:
.LBE133:
.LBE132:
	.loc 7 1186 0 is_stmt 1
	movl	-788(%rbp), %eax
	subl	-748(%rbp), %eax
	movl	%eax, -788(%rbp)
	.loc 7 1187 0
	movl	-764(%rbp), %eax
	andl	$64, %eax
	testl	%eax, %eax
	jne	.L627
.L620:
	.loc 7 1188 0
	cmpl	$0, -748(%rbp)
	je	.L621
	.loc 7 1189 0
	movq	-616(%rbp), %rax
	andl	$3, %eax
	testq	%rax, %rax
	je	.L728
	.loc 7 1191 0
	movq	-616(%rbp), %rax
	leaq	1(%rax), %rdx
	movq	%rdx, -616(%rbp)
	movb	$48, (%rax)
	.loc 7 1192 0
	subl	$1, -748(%rbp)
	.loc 7 1188 0
	jmp	.L620
.L728:
	.loc 7 1190 0
	nop
.L621:
	.loc 7 1194 0
	cmpl	$3, -748(%rbp)
	jle	.L627
	.loc 7 1195 0
	movq	-616(%rbp), %rax
	movl	$808464432, (%rax)
	.loc 7 1196 0
	addq	$4, -616(%rbp)
	.loc 7 1197 0
	subl	$4, -748(%rbp)
	.loc 7 1194 0
	jmp	.L621
.L627:
	.loc 7 1200 0
	cmpl	$0, -748(%rbp)
	je	.L622
	.loc 7 1201 0
	movl	-764(%rbp), %eax
	andl	$64, %eax
	testl	%eax, %eax
	je	.L623
	.loc 7 1201 0 is_stmt 0 discriminator 1
	movl	-756(%rbp), %eax
	leal	1(%rax), %edx
	movl	%edx, -756(%rbp)
	cmpl	%eax, -692(%rbp)
	jne	.L623
	.loc 7 1201 0 discriminator 3
	movl	$1, %eax
	jmp	.L624
.L623:
	.loc 7 1201 0 discriminator 4
	movl	$0, %eax
.L624:
	.loc 7 1201 0 discriminator 6
	testb	%al, %al
	je	.L625
	.loc 7 1202 0 is_stmt 1
	movl	$0, -756(%rbp)
	.loc 7 1203 0
	movzbl	_ZL12stbsp__comma(%rip), %edx
	movq	-616(%rbp), %rax
	leaq	1(%rax), %rcx
	movq	%rcx, -616(%rbp)
	movb	%dl, (%rax)
	jmp	.L626
.L625:
	.loc 7 1205 0
	movq	-616(%rbp), %rax
	leaq	1(%rax), %rdx
	movq	%rdx, -616(%rbp)
	movb	$48, (%rax)
.L626:
	.loc 7 1206 0
	subl	$1, -748(%rbp)
	.loc 7 1200 0
	jmp	.L627
.L622:
.LBB134:
.LBB135:
	.loc 7 1208 0
	cmpq	$0, -808(%rbp)
	je	.L630
.LBB136:
.LBB137:
	.loc 7 1208 0 is_stmt 0 discriminator 1
	movq	-616(%rbp), %rdx
	movq	-824(%rbp), %rax
	subq	%rax, %rdx
	movq	%rdx, %rax
	movl	%eax, -684(%rbp)
	movl	-684(%rbp), %eax
	addl	$1, %eax
	cmpl	$511, %eax
	jle	.L630
	.loc 7 1208 0 discriminator 2
	movl	-684(%rbp), %eax
	addl	%eax, -776(%rbp)
	movl	-684(%rbp), %edx
	movq	-816(%rbp), %rsi
	movq	-824(%rbp), %rcx
	movq	-808(%rbp), %rax
	movq	%rcx, %rdi
	call	*%rax
.LVL3:
	movq	%rax, -824(%rbp)
	movq	-824(%rbp), %rax
	movq	%rax, -616(%rbp)
	cmpq	$0, -616(%rbp)
	sete	%al
	testb	%al, %al
	jne	.L729
.LBE137:
.LBE136:
.LBE135:
.LBE134:
.LBE131:
	.loc 7 1184 0 is_stmt 1 discriminator 9
	jmp	.L630
.L589:
.LBE104:
.LBE103:
	.loc 7 1213 0
	leaq	-544(%rbp), %rax
	addq	$1, %rax
	movq	%rax, -624(%rbp)
.L638:
	.loc 7 1214 0
	movzbl	-544(%rbp), %eax
	testb	%al, %al
	je	.L631
.LBB146:
	.loc 7 1216 0
	movzbl	-544(%rbp), %eax
	movsbl	%al, %eax
	movl	%eax, -744(%rbp)
.LBB147:
	cmpq	$0, -808(%rbp)
	je	.L632
.LBB148:
	.loc 7 1216 0 is_stmt 0 discriminator 1
	movq	-616(%rbp), %rdx
	movq	-824(%rbp), %rax
	subq	%rax, %rdx
	movq	%rdx, %rax
	movl	$512, %edx
	subl	%eax, %edx
	movl	%edx, %eax
	movl	%eax, -680(%rbp)
	movl	-744(%rbp), %eax
	cmpl	-680(%rbp), %eax
	jle	.L632
	.loc 7 1216 0 discriminator 2
	movl	-680(%rbp), %eax
	movl	%eax, -744(%rbp)
.L632:
.LBE148:
.LBE147:
	.loc 7 1217 0 is_stmt 1
	movzbl	-544(%rbp), %eax
	movl	%eax, %edx
	movl	-744(%rbp), %eax
	subl	%eax, %edx
	movl	%edx, %eax
	movb	%al, -544(%rbp)
.L635:
	.loc 7 1218 0
	cmpl	$0, -744(%rbp)
	je	.L634
	.loc 7 1219 0
	movq	-624(%rbp), %rax
	leaq	1(%rax), %rdx
	movq	%rdx, -624(%rbp)
	movzbl	(%rax), %edx
	movq	-616(%rbp), %rax
	leaq	1(%rax), %rcx
	movq	%rcx, -616(%rbp)
	movb	%dl, (%rax)
	.loc 7 1220 0
	subl	$1, -744(%rbp)
	.loc 7 1218 0
	jmp	.L635
.L634:
.LBB149:
.LBB150:
	.loc 7 1222 0
	cmpq	$0, -808(%rbp)
	je	.L638
.LBB151:
.LBB152:
	.loc 7 1222 0 is_stmt 0 discriminator 1
	movq	-616(%rbp), %rdx
	movq	-824(%rbp), %rax
	subq	%rax, %rdx
	movq	%rdx, %rax
	movl	%eax, -676(%rbp)
	movl	-676(%rbp), %eax
	addl	$1, %eax
	cmpl	$511, %eax
	jle	.L638
	.loc 7 1222 0 discriminator 2
	movl	-676(%rbp), %eax
	addl	%eax, -776(%rbp)
	movl	-676(%rbp), %edx
	movq	-816(%rbp), %rsi
	movq	-824(%rbp), %rcx
	movq	-808(%rbp), %rax
	movq	%rcx, %rdi
	call	*%rax
.LVL4:
	movq	%rax, -824(%rbp)
	movq	-824(%rbp), %rax
	movq	%rax, -616(%rbp)
	cmpq	$0, -616(%rbp)
	sete	%al
	testb	%al, %al
	jne	.L730
.LBE152:
.LBE151:
.LBE150:
.LBE149:
.LBE146:
	.loc 7 1214 0 is_stmt 1 discriminator 11
	jmp	.L638
.L631:
	.loc 7 1226 0
	movl	-784(%rbp), %eax
	movl	%eax, -760(%rbp)
.L647:
	.loc 7 1227 0
	cmpl	$0, -760(%rbp)
	je	.L639
.LBB157:
	.loc 7 1229 0
	movl	-760(%rbp), %eax
	movl	%eax, -740(%rbp)
.LBB158:
	cmpq	$0, -808(%rbp)
	je	.L640
.LBB159:
	.loc 7 1229 0 is_stmt 0 discriminator 1
	movq	-616(%rbp), %rdx
	movq	-824(%rbp), %rax
	subq	%rax, %rdx
	movq	%rdx, %rax
	movl	$512, %edx
	subl	%eax, %edx
	movl	%edx, %eax
	movl	%eax, -672(%rbp)
	movl	-740(%rbp), %eax
	cmpl	-672(%rbp), %eax
	jle	.L640
	.loc 7 1229 0 discriminator 2
	movl	-672(%rbp), %eax
	movl	%eax, -740(%rbp)
.L640:
.LBE159:
.LBE158:
	.loc 7 1230 0 is_stmt 1
	movl	-740(%rbp), %eax
	subl	%eax, -760(%rbp)
.L643:
	.loc 7 1231 0 discriminator 2
	cmpl	$3, -740(%rbp)
	jle	.L642
	.loc 7 1231 0 is_stmt 0 discriminator 1
	movq	-600(%rbp), %rax
	movl	(%rax), %edx
	movq	-616(%rbp), %rax
	movl	%edx, (%rax)
	addq	$4, -616(%rbp)
	addq	$4, -600(%rbp)
	subl	$4, -740(%rbp)
	jmp	.L643
.L642:
	.loc 7 1237 0 is_stmt 1
	cmpl	$0, -740(%rbp)
	je	.L644
	.loc 7 1238 0
	movq	-600(%rbp), %rax
	leaq	1(%rax), %rdx
	movq	%rdx, -600(%rbp)
	movzbl	(%rax), %edx
	movq	-616(%rbp), %rax
	leaq	1(%rax), %rcx
	movq	%rcx, -616(%rbp)
	movb	%dl, (%rax)
	.loc 7 1239 0
	subl	$1, -740(%rbp)
	.loc 7 1237 0
	jmp	.L642
.L644:
.LBB160:
.LBB161:
	.loc 7 1241 0
	cmpq	$0, -808(%rbp)
	je	.L647
.LBB162:
.LBB163:
	.loc 7 1241 0 is_stmt 0 discriminator 1
	movq	-616(%rbp), %rdx
	movq	-824(%rbp), %rax
	subq	%rax, %rdx
	movq	%rdx, %rax
	movl	%eax, -668(%rbp)
	movl	-668(%rbp), %eax
	addl	$1, %eax
	cmpl	$511, %eax
	jle	.L647
	.loc 7 1241 0 discriminator 2
	movl	-668(%rbp), %eax
	addl	%eax, -776(%rbp)
	movl	-668(%rbp), %edx
	movq	-816(%rbp), %rsi
	movq	-824(%rbp), %rcx
	movq	-808(%rbp), %rax
	movq	%rcx, %rdi
	call	*%rax
.LVL5:
	movq	%rax, -824(%rbp)
	movq	-824(%rbp), %rax
	movq	%rax, -616(%rbp)
	cmpq	$0, -616(%rbp)
	sete	%al
	testb	%al, %al
	jne	.L731
.LBE163:
.LBE162:
.LBE161:
.LBE160:
.LBE157:
	.loc 7 1227 0 is_stmt 1 discriminator 13
	jmp	.L647
.L639:
	.loc 7 1245 0
	cmpl	$0, -768(%rbp)
	je	.L648
.LBB168:
	.loc 7 1247 0
	movl	-768(%rbp), %eax
	movl	%eax, -736(%rbp)
.LBB169:
	cmpq	$0, -808(%rbp)
	je	.L649
.LBB170:
	.loc 7 1247 0 is_stmt 0 discriminator 1
	movq	-616(%rbp), %rdx
	movq	-824(%rbp), %rax
	subq	%rax, %rdx
	movq	%rdx, %rax
	movl	$512, %edx
	subl	%eax, %edx
	movl	%edx, %eax
	movl	%eax, -664(%rbp)
	movl	-736(%rbp), %eax
	cmpl	-664(%rbp), %eax
	jle	.L649
	.loc 7 1247 0 discriminator 2
	movl	-664(%rbp), %eax
	movl	%eax, -736(%rbp)
.L649:
.LBE170:
.LBE169:
	.loc 7 1248 0 is_stmt 1
	movl	-736(%rbp), %eax
	subl	%eax, -768(%rbp)
.L653:
	.loc 7 1249 0
	cmpl	$0, -736(%rbp)
	je	.L655
	.loc 7 1250 0
	movq	-616(%rbp), %rax
	andl	$3, %eax
	testq	%rax, %rax
	je	.L732
	.loc 7 1252 0
	movq	-616(%rbp), %rax
	leaq	1(%rax), %rdx
	movq	%rdx, -616(%rbp)
	movb	$48, (%rax)
	.loc 7 1253 0
	subl	$1, -736(%rbp)
	.loc 7 1249 0
	jmp	.L653
.L732:
	.loc 7 1251 0
	nop
.L655:
	.loc 7 1255 0
	cmpl	$3, -736(%rbp)
	jle	.L654
	.loc 7 1256 0
	movq	-616(%rbp), %rax
	movl	$808464432, (%rax)
	.loc 7 1257 0
	addq	$4, -616(%rbp)
	.loc 7 1258 0
	subl	$4, -736(%rbp)
	.loc 7 1255 0
	jmp	.L655
.L654:
	.loc 7 1260 0
	cmpl	$0, -736(%rbp)
	je	.L656
	.loc 7 1261 0
	movq	-616(%rbp), %rax
	leaq	1(%rax), %rdx
	movq	%rdx, -616(%rbp)
	movb	$48, (%rax)
	.loc 7 1262 0
	subl	$1, -736(%rbp)
	.loc 7 1260 0
	jmp	.L654
.L656:
.LBB171:
.LBB172:
	.loc 7 1264 0
	cmpq	$0, -808(%rbp)
	je	.L639
.LBB173:
.LBB174:
	.loc 7 1264 0 is_stmt 0 discriminator 1
	movq	-616(%rbp), %rdx
	movq	-824(%rbp), %rax
	subq	%rax, %rdx
	movq	%rdx, %rax
	movl	%eax, -660(%rbp)
	movl	-660(%rbp), %eax
	addl	$1, %eax
	cmpl	$511, %eax
	jle	.L639
	.loc 7 1264 0 discriminator 2
	movl	-660(%rbp), %eax
	addl	%eax, -776(%rbp)
	movl	-660(%rbp), %edx
	movq	-816(%rbp), %rsi
	movq	-824(%rbp), %rcx
	movq	-808(%rbp), %rax
	movq	%rcx, %rdi
	call	*%rax
.LVL6:
	movq	%rax, -824(%rbp)
	movq	-824(%rbp), %rax
	movq	%rax, -616(%rbp)
	cmpq	$0, -616(%rbp)
	sete	%al
	testb	%al, %al
	jne	.L733
.LBE174:
.LBE173:
.LBE172:
.LBE171:
.LBE168:
	.loc 7 1245 0 is_stmt 1 discriminator 15
	jmp	.L639
.L648:
	.loc 7 1268 0
	leaq	-536(%rbp), %rax
	addq	$1, %rax
	movq	%rax, -624(%rbp)
.L666:
	.loc 7 1269 0
	movzbl	-536(%rbp), %eax
	testb	%al, %al
	je	.L659
.LBB179:
	.loc 7 1271 0
	movzbl	-536(%rbp), %eax
	movsbl	%al, %eax
	movl	%eax, -732(%rbp)
.LBB180:
	cmpq	$0, -808(%rbp)
	je	.L660
.LBB181:
	.loc 7 1271 0 is_stmt 0 discriminator 1
	movq	-616(%rbp), %rdx
	movq	-824(%rbp), %rax
	subq	%rax, %rdx
	movq	%rdx, %rax
	movl	$512, %edx
	subl	%eax, %edx
	movl	%edx, %eax
	movl	%eax, -656(%rbp)
	movl	-732(%rbp), %eax
	cmpl	-656(%rbp), %eax
	jle	.L660
	.loc 7 1271 0 discriminator 2
	movl	-656(%rbp), %eax
	movl	%eax, -732(%rbp)
.L660:
.LBE181:
.LBE180:
	.loc 7 1272 0 is_stmt 1
	movzbl	-536(%rbp), %eax
	movl	%eax, %edx
	movl	-732(%rbp), %eax
	subl	%eax, %edx
	movl	%edx, %eax
	movb	%al, -536(%rbp)
.L663:
	.loc 7 1273 0
	cmpl	$0, -732(%rbp)
	je	.L662
	.loc 7 1274 0
	movq	-624(%rbp), %rax
	leaq	1(%rax), %rdx
	movq	%rdx, -624(%rbp)
	movzbl	(%rax), %edx
	movq	-616(%rbp), %rax
	leaq	1(%rax), %rcx
	movq	%rcx, -616(%rbp)
	movb	%dl, (%rax)
	.loc 7 1275 0
	subl	$1, -732(%rbp)
	.loc 7 1273 0
	jmp	.L663
.L662:
.LBB182:
.LBB183:
	.loc 7 1277 0
	cmpq	$0, -808(%rbp)
	je	.L666
.LBB184:
.LBB185:
	.loc 7 1277 0 is_stmt 0 discriminator 1
	movq	-616(%rbp), %rdx
	movq	-824(%rbp), %rax
	subq	%rax, %rdx
	movq	%rdx, %rax
	movl	%eax, -652(%rbp)
	movl	-652(%rbp), %eax
	addl	$1, %eax
	cmpl	$511, %eax
	jle	.L666
	.loc 7 1277 0 discriminator 2
	movl	-652(%rbp), %eax
	addl	%eax, -776(%rbp)
	movl	-652(%rbp), %edx
	movq	-816(%rbp), %rsi
	movq	-824(%rbp), %rcx
	movq	-808(%rbp), %rax
	movq	%rcx, %rdi
	call	*%rax
.LVL7:
	movq	%rax, -824(%rbp)
	movq	-824(%rbp), %rax
	movq	%rax, -616(%rbp)
	cmpq	$0, -616(%rbp)
	sete	%al
	testb	%al, %al
	jne	.L734
.LBE185:
.LBE184:
.LBE183:
.LBE182:
.LBE179:
	.loc 7 1269 0 is_stmt 1 discriminator 17
	jmp	.L666
.L659:
.LBB190:
	.loc 7 1281 0
	movl	-764(%rbp), %eax
	andl	$1, %eax
	testl	%eax, %eax
	je	.L735
.LBB191:
.LBB192:
	.loc 7 1282 0
	cmpl	$0, -772(%rbp)
	jle	.L735
.L680:
.LBB193:
	.loc 7 1283 0
	cmpl	$0, -772(%rbp)
	je	.L735
.LBB194:
	.loc 7 1285 0
	movl	-772(%rbp), %eax
	movl	%eax, -728(%rbp)
.LBB195:
	cmpq	$0, -808(%rbp)
	je	.L670
.LBB196:
	.loc 7 1285 0 is_stmt 0 discriminator 1
	movq	-616(%rbp), %rdx
	movq	-824(%rbp), %rax
	subq	%rax, %rdx
	movq	%rdx, %rax
	movl	$512, %edx
	subl	%eax, %edx
	movl	%edx, %eax
	movl	%eax, -648(%rbp)
	movl	-728(%rbp), %eax
	cmpl	-648(%rbp), %eax
	jle	.L670
	.loc 7 1285 0 discriminator 2
	movl	-648(%rbp), %eax
	movl	%eax, -728(%rbp)
.L670:
.LBE196:
.LBE195:
	.loc 7 1286 0 is_stmt 1
	movl	-728(%rbp), %eax
	subl	%eax, -772(%rbp)
.L674:
	.loc 7 1287 0
	cmpl	$0, -728(%rbp)
	je	.L676
	.loc 7 1288 0
	movq	-616(%rbp), %rax
	andl	$3, %eax
	testq	%rax, %rax
	je	.L736
	.loc 7 1290 0
	movq	-616(%rbp), %rax
	leaq	1(%rax), %rdx
	movq	%rdx, -616(%rbp)
	movb	$32, (%rax)
	.loc 7 1291 0
	subl	$1, -728(%rbp)
	.loc 7 1287 0
	jmp	.L674
.L736:
	.loc 7 1289 0
	nop
.L676:
	.loc 7 1293 0
	cmpl	$3, -728(%rbp)
	jle	.L675
	.loc 7 1294 0
	movq	-616(%rbp), %rax
	movl	$538976288, (%rax)
	.loc 7 1295 0
	addq	$4, -616(%rbp)
	.loc 7 1296 0
	subl	$4, -728(%rbp)
	.loc 7 1293 0
	jmp	.L676
.L675:
	.loc 7 1298 0
	movl	-728(%rbp), %eax
	leal	-1(%rax), %edx
	movl	%edx, -728(%rbp)
	testl	%eax, %eax
	setne	%al
	testb	%al, %al
	je	.L677
	.loc 7 1299 0
	movq	-616(%rbp), %rax
	leaq	1(%rax), %rdx
	movq	%rdx, -616(%rbp)
	movb	$32, (%rax)
	.loc 7 1298 0
	jmp	.L675
.L677:
.LBB197:
.LBB198:
	.loc 7 1300 0
	cmpq	$0, -808(%rbp)
	je	.L680
.LBB199:
.LBB200:
	.loc 7 1300 0 is_stmt 0 discriminator 1
	movq	-616(%rbp), %rdx
	movq	-824(%rbp), %rax
	subq	%rax, %rdx
	movq	%rdx, %rax
	movl	%eax, -644(%rbp)
	movl	-644(%rbp), %eax
	addl	$1, %eax
	cmpl	$511, %eax
	jle	.L680
	.loc 7 1300 0 discriminator 2
	movl	-644(%rbp), %eax
	addl	%eax, -776(%rbp)
	movl	-644(%rbp), %edx
	movq	-816(%rbp), %rsi
	movq	-824(%rbp), %rcx
	movq	-808(%rbp), %rax
	movq	%rcx, %rdi
	call	*%rax
.LVL8:
	movq	%rax, -824(%rbp)
	movq	-824(%rbp), %rax
	movq	%rax, -616(%rbp)
	cmpq	$0, -616(%rbp)
	sete	%al
	testb	%al, %al
	jne	.L737
.LBE200:
.LBE199:
.LBE198:
.LBE197:
.LBE194:
	.loc 7 1283 0 is_stmt 1 discriminator 19
	jmp	.L680
.L373:
.LBE193:
.LBE192:
.LBE191:
.LBE190:
	.loc 7 1306 0
	leaq	-528(%rbp), %rax
	addq	$511, %rax
	movq	%rax, -600(%rbp)
	.loc 7 1307 0
	movq	-608(%rbp), %rax
	movzbl	(%rax), %edx
	movq	-600(%rbp), %rax
	movb	%dl, (%rax)
	.loc 7 1308 0
	movl	$1, -784(%rbp)
	.loc 7 1309 0
	movl	$0, -764(%rbp)
	movl	$0, -772(%rbp)
	.loc 7 1310 0
	movb	$0, -544(%rbp)
	.loc 7 1311 0
	movb	$0, -536(%rbp)
	.loc 7 1312 0
	movl	$0, -788(%rbp)
	.loc 7 1313 0
	movl	$0, -780(%rbp)
	.loc 7 1314 0
	movl	$0, -756(%rbp)
	.loc 7 1315 0
	jmp	.L401
.L735:
	.loc 7 1303 0
	nop
.L406:
.LBE88:
.LBE87:
	.loc 7 1317 0
	addq	$1, -608(%rbp)
.LBE62:
	.loc 7 1318 0
	jmp	.L329
.L726:
.LBB219:
.LBB216:
.LBB215:
.LBB209:
.LBB145:
.LBB142:
.LBB119:
.LBB118:
.LBB117:
.LBB116:
.LBB115:
.LBB114:
	.loc 7 1165 0
	nop
	jmp	.L682
.L727:
.LBE114:
.LBE115:
.LBE116:
.LBE117:
.LBE118:
.LBE119:
.LBE142:
.LBB143:
.LBB130:
.LBB129:
.LBB128:
.LBB127:
	.loc 7 1177 0
	nop
	jmp	.L682
.L729:
.LBE127:
.LBE128:
.LBE129:
.LBE130:
.LBE143:
.LBB144:
.LBB141:
.LBB140:
.LBB139:
.LBB138:
	.loc 7 1208 0
	nop
	jmp	.L682
.L730:
.LBE138:
.LBE139:
.LBE140:
.LBE141:
.LBE144:
.LBE145:
.LBE209:
.LBB210:
.LBB156:
.LBB155:
.LBB154:
.LBB153:
	.loc 7 1222 0
	nop
	jmp	.L682
.L731:
.LBE153:
.LBE154:
.LBE155:
.LBE156:
.LBE210:
.LBB211:
.LBB167:
.LBB166:
.LBB165:
.LBB164:
	.loc 7 1241 0
	nop
	jmp	.L682
.L733:
.LBE164:
.LBE165:
.LBE166:
.LBE167:
.LBE211:
.LBB212:
.LBB178:
.LBB177:
.LBB176:
.LBB175:
	.loc 7 1264 0
	nop
	jmp	.L682
.L734:
.LBE175:
.LBE176:
.LBE177:
.LBE178:
.LBE212:
.LBB213:
.LBB189:
.LBB188:
.LBB187:
.LBB186:
	.loc 7 1277 0
	nop
	jmp	.L682
.L737:
.LBE186:
.LBE187:
.LBE188:
.LBE189:
.LBE213:
.LBB214:
.LBB208:
.LBB207:
.LBB206:
.LBB205:
.LBB204:
.LBB203:
.LBB202:
.LBB201:
	.loc 7 1300 0
	nop
.LBE201:
.LBE202:
.LBE203:
.LBE204:
.LBE205:
.LBE206:
.LBE207:
.LBE208:
.LBE214:
.LBE215:
.LBE216:
	.loc 7 345 0
	jmp	.L682
.L696:
.LBB217:
.LBB85:
.LBB83:
	.loc 7 344 0
	nop
.L681:
.LBE83:
.LBE85:
.LBE217:
.LBE219:
.LBE61:
.LBB221:
	.loc 7 1321 0
	cmpq	$0, -808(%rbp)
	jne	.L683
	.loc 7 1322 0
	movq	-616(%rbp), %rax
	movb	$0, (%rax)
	jmp	.L682
.L683:
.LBB222:
.LBB223:
	.loc 7 1324 0
	movq	-616(%rbp), %rdx
	movq	-824(%rbp), %rax
	subq	%rax, %rdx
	movq	%rdx, %rax
	movl	%eax, -636(%rbp)
	movl	-636(%rbp), %eax
	addl	$511, %eax
	cmpl	$511, %eax
	jle	.L738
	.loc 7 1324 0 is_stmt 0 discriminator 1
	movl	-636(%rbp), %eax
	addl	%eax, -776(%rbp)
	movl	-636(%rbp), %edx
	movq	-816(%rbp), %rsi
	movq	-824(%rbp), %rcx
	movq	-808(%rbp), %rax
	movq	%rcx, %rdi
	call	*%rax
.LVL9:
	movq	%rax, -824(%rbp)
	movq	-824(%rbp), %rax
	movq	%rax, -616(%rbp)
	cmpq	$0, -616(%rbp)
	sete	%al
	testb	%al, %al
	jmp	.L682
.L697:
.LBE223:
.LBE222:
.LBE221:
.LBB224:
.LBB220:
.LBB218:
.LBB86:
.LBB84:
.LBB73:
.LBB72:
.LBB71:
.LBB70:
	.loc 7 345 0 is_stmt 1
	nop
	jmp	.L682
.L738:
.LBE70:
.LBE71:
.LBE72:
.LBE73:
.LBE84:
.LBE86:
.LBE218:
.LBE220:
.LBE224:
	.loc 7 1326 0
	nop
.L682:
	.loc 7 1327 0
	movq	-616(%rbp), %rdx
	movq	-824(%rbp), %rax
	subq	%rax, %rdx
	movq	%rdx, %rax
	movl	%eax, %edx
	movl	-776(%rbp), %eax
	addl	%edx, %eax
	.loc 7 1328 0
	movq	-8(%rbp), %rdi
	xorq	%fs:40, %rdi
	je	.L685
	call	__stack_chk_fail@PLT
.L685:
	leave
	.cfi_def_cfa 7, 8
	ret
	.cfi_endproc
.LFE83:
	.size	stbsp_vsprintfcb, .-stbsp_vsprintfcb
	.globl	stbsp_sprintf
	.type	stbsp_sprintf, @function
stbsp_sprintf:
.LFB84:
	.loc 7 1350 0
	.cfi_startproc
	pushq	%rbp
	.cfi_def_cfa_offset 16
	.cfi_offset 6, -16
	movq	%rsp, %rbp
	.cfi_def_cfa_register 6
	subq	$240, %rsp
	movq	%rdi, -232(%rbp)
	movq	%rsi, -240(%rbp)
	movq	%rdx, -160(%rbp)
	movq	%rcx, -152(%rbp)
	movq	%r8, -144(%rbp)
	movq	%r9, -136(%rbp)
	testb	%al, %al
	je	.L740
	movaps	%xmm0, -128(%rbp)
	movaps	%xmm1, -112(%rbp)
	movaps	%xmm2, -96(%rbp)
	movaps	%xmm3, -80(%rbp)
	movaps	%xmm4, -64(%rbp)
	movaps	%xmm5, -48(%rbp)
	movaps	%xmm6, -32(%rbp)
	movaps	%xmm7, -16(%rbp)
.L740:
	.loc 7 1350 0
	movq	%fs:40, %rax
	movq	%rax, -184(%rbp)
	xorl	%eax, %eax
	.loc 7 1353 0
	movl	$16, -208(%rbp)
	movl	$48, -204(%rbp)
	leaq	16(%rbp), %rax
	movq	%rax, -200(%rbp)
	leaq	-176(%rbp), %rax
	movq	%rax, -192(%rbp)
	.loc 7 1354 0
	leaq	-208(%rbp), %rcx
	movq	-240(%rbp), %rdx
	movq	-232(%rbp), %rax
	movq	%rcx, %r8
	movq	%rdx, %rcx
	movq	%rax, %rdx
	movl	$0, %esi
	movl	$0, %edi
	call	stbsp_vsprintfcb
	movl	%eax, -212(%rbp)
	.loc 7 1356 0
	movl	-212(%rbp), %eax
	.loc 7 1357 0
	movq	-184(%rbp), %rsi
	xorq	%fs:40, %rsi
	je	.L742
	call	__stack_chk_fail@PLT
.L742:
	leave
	.cfi_def_cfa 7, 8
	ret
	.cfi_endproc
.LFE84:
	.size	stbsp_sprintf, .-stbsp_sprintf
	.type	_ZL21stbsp__clamp_callbackPKcPvi, @function
_ZL21stbsp__clamp_callbackPKcPvi:
.LFB85:
	.loc 7 1367 0
	.cfi_startproc
	pushq	%rbp
	.cfi_def_cfa_offset 16
	.cfi_offset 6, -16
	movq	%rsp, %rbp
	.cfi_def_cfa_register 6
	movq	%rdi, -40(%rbp)
	movq	%rsi, -48(%rbp)
	movl	%edx, -52(%rbp)
	.loc 7 1368 0
	movq	-48(%rbp), %rax
	movq	%rax, -16(%rbp)
	.loc 7 1369 0
	movq	-16(%rbp), %rax
	movl	12(%rax), %edx
	movl	-52(%rbp), %eax
	addl	%eax, %edx
	movq	-16(%rbp), %rax
	movl	%edx, 12(%rax)
	.loc 7 1371 0
	movq	-16(%rbp), %rax
	movl	8(%rax), %eax
	cmpl	%eax, -52(%rbp)
	jle	.L744
	.loc 7 1372 0
	movq	-16(%rbp), %rax
	movl	8(%rax), %eax
	movl	%eax, -52(%rbp)
.L744:
.LBB225:
	.loc 7 1374 0
	cmpl	$0, -52(%rbp)
	je	.L745
.LBB226:
.LBB227:
	.loc 7 1375 0
	movq	-16(%rbp), %rax
	movq	(%rax), %rax
	cmpq	%rax, -40(%rbp)
	je	.L746
.LBB228:
	.loc 7 1378 0
	movq	-16(%rbp), %rax
	movq	(%rax), %rax
	movq	%rax, -24(%rbp)
	.loc 7 1379 0
	movq	-40(%rbp), %rax
	movq	%rax, -32(%rbp)
	.loc 7 1380 0
	movl	-52(%rbp), %eax
	movslq	%eax, %rdx
	movq	-40(%rbp), %rax
	addq	%rdx, %rax
	movq	%rax, -8(%rbp)
.L748:
	.loc 7 1382 0
	movq	-32(%rbp), %rax
	leaq	1(%rax), %rdx
	movq	%rdx, -32(%rbp)
	movzbl	(%rax), %edx
	movq	-24(%rbp), %rax
	leaq	1(%rax), %rcx
	movq	%rcx, -24(%rbp)
	movb	%dl, (%rax)
	.loc 7 1383 0
	movq	-32(%rbp), %rax
	cmpq	-8(%rbp), %rax
	jnb	.L746
	.loc 7 1381 0
	jmp	.L748
.L746:
.LBE228:
.LBE227:
	.loc 7 1385 0
	movq	-16(%rbp), %rax
	movq	(%rax), %rdx
	movl	-52(%rbp), %eax
	cltq
	addq	%rax, %rdx
	movq	-16(%rbp), %rax
	movq	%rdx, (%rax)
	.loc 7 1386 0
	movq	-16(%rbp), %rax
	movl	8(%rax), %eax
	subl	-52(%rbp), %eax
	movl	%eax, %edx
	movq	-16(%rbp), %rax
	movl	%edx, 8(%rax)
.L745:
.LBE226:
.LBE225:
	.loc 7 1389 0
	movq	-16(%rbp), %rax
	movl	8(%rax), %eax
	testl	%eax, %eax
	jg	.L749
	.loc 7 1390 0
	movq	-16(%rbp), %rax
	addq	$16, %rax
	jmp	.L750
.L749:
	.loc 7 1391 0
	movq	-16(%rbp), %rax
	movl	8(%rax), %eax
	cmpl	$511, %eax
	jle	.L751
	.loc 7 1391 0 is_stmt 0 discriminator 1
	movq	-16(%rbp), %rax
	movq	(%rax), %rax
	jmp	.L753
.L751:
	.loc 7 1391 0 discriminator 2
	movq	-16(%rbp), %rax
	addq	$16, %rax
.L753:
	.loc 7 1391 0
	nop
.L750:
	.loc 7 1392 0 is_stmt 1
	popq	%rbp
	.cfi_def_cfa 7, 8
	ret
	.cfi_endproc
.LFE85:
	.size	_ZL21stbsp__clamp_callbackPKcPvi, .-_ZL21stbsp__clamp_callbackPKcPvi
	.type	_ZL27stbsp__count_clamp_callbackPKcPvi, @function
_ZL27stbsp__count_clamp_callbackPKcPvi:
.LFB86:
	.loc 7 1395 0
	.cfi_startproc
	pushq	%rbp
	.cfi_def_cfa_offset 16
	.cfi_offset 6, -16
	movq	%rsp, %rbp
	.cfi_def_cfa_register 6
	movq	%rdi, -24(%rbp)
	movq	%rsi, -32(%rbp)
	movl	%edx, -36(%rbp)
	.loc 7 1396 0
	movq	-32(%rbp), %rax
	movq	%rax, -8(%rbp)
	.loc 7 1399 0
	movq	-8(%rbp), %rax
	movl	12(%rax), %edx
	movl	-36(%rbp), %eax
	addl	%eax, %edx
	movq	-8(%rbp), %rax
	movl	%edx, 12(%rax)
	.loc 7 1400 0
	movq	-8(%rbp), %rax
	addq	$16, %rax
	.loc 7 1401 0
	popq	%rbp
	.cfi_def_cfa 7, 8
	ret
	.cfi_endproc
.LFE86:
	.size	_ZL27stbsp__count_clamp_callbackPKcPvi, .-_ZL27stbsp__count_clamp_callbackPKcPvi
	.globl	stbsp_vsnprintf
	.type	stbsp_vsnprintf, @function
stbsp_vsnprintf:
.LFB87:
	.loc 7 1404 0
	.cfi_startproc
	pushq	%rbp
	.cfi_def_cfa_offset 16
	.cfi_offset 6, -16
	movq	%rsp, %rbp
	.cfi_def_cfa_register 6
	subq	$592, %rsp
	movq	%rdi, -568(%rbp)
	movl	%esi, -572(%rbp)
	movq	%rdx, -584(%rbp)
	movq	%rcx, -592(%rbp)
	.loc 7 1404 0
	movq	%fs:40, %rax
	movq	%rax, -8(%rbp)
	xorl	%eax, %eax
.LBB229:
	.loc 7 1407 0
	cmpl	$0, -572(%rbp)
	jne	.L757
	.loc 7 1407 0 is_stmt 0 discriminator 1
	cmpq	$0, -568(%rbp)
	jne	.L757
	.loc 7 1409 0 is_stmt 1
	movl	$0, -532(%rbp)
	.loc 7 1411 0
	movq	-592(%rbp), %rcx
	movq	-584(%rbp), %rdx
	leaq	-544(%rbp), %rax
	leaq	16(%rax), %rsi
	leaq	-544(%rbp), %rax
	movq	%rcx, %r8
	movq	%rdx, %rcx
	movq	%rsi, %rdx
	movq	%rax, %rsi
	leaq	_ZL27stbsp__count_clamp_callbackPKcPvi(%rip), %rdi
	call	stbsp_vsprintfcb
	jmp	.L758
.L757:
.LBB230:
	.loc 7 1417 0
	movq	-568(%rbp), %rax
	movq	%rax, -544(%rbp)
	.loc 7 1418 0
	movl	-572(%rbp), %eax
	movl	%eax, -536(%rbp)
	.loc 7 1419 0
	movl	$0, -532(%rbp)
	.loc 7 1421 0
	leaq	-544(%rbp), %rax
	movl	$0, %edx
	movq	%rax, %rsi
	movl	$0, %edi
	call	_ZL21stbsp__clamp_callbackPKcPvi
	movq	%rax, %rsi
	movq	-592(%rbp), %rcx
	movq	-584(%rbp), %rdx
	leaq	-544(%rbp), %rax
	movq	%rcx, %r8
	movq	%rdx, %rcx
	movq	%rsi, %rdx
	movq	%rax, %rsi
	leaq	_ZL21stbsp__clamp_callbackPKcPvi(%rip), %rdi
	call	stbsp_vsprintfcb
	.loc 7 1424 0
	movq	-544(%rbp), %rax
	movq	%rax, %rdx
	movq	-568(%rbp), %rax
	subq	%rax, %rdx
	movq	%rdx, %rax
	movl	%eax, -548(%rbp)
	.loc 7 1425 0
	movl	-548(%rbp), %eax
	cmpl	-572(%rbp), %eax
	jl	.L759
	.loc 7 1426 0
	movl	-572(%rbp), %eax
	subl	$1, %eax
	movl	%eax, -548(%rbp)
.L759:
	.loc 7 1427 0
	movl	-548(%rbp), %eax
	movslq	%eax, %rdx
	movq	-568(%rbp), %rax
	addq	%rdx, %rax
	movb	$0, (%rax)
.L758:
.LBE230:
.LBE229:
	.loc 7 1430 0
	movl	-532(%rbp), %eax
	.loc 7 1431 0
	movq	-8(%rbp), %rdi
	xorq	%fs:40, %rdi
	je	.L761
	call	__stack_chk_fail@PLT
.L761:
	leave
	.cfi_def_cfa 7, 8
	ret
	.cfi_endproc
.LFE87:
	.size	stbsp_vsnprintf, .-stbsp_vsnprintf
	.globl	stbsp_snprintf
	.type	stbsp_snprintf, @function
stbsp_snprintf:
.LFB88:
	.loc 7 1434 0
	.cfi_startproc
	pushq	%rbp
	.cfi_def_cfa_offset 16
	.cfi_offset 6, -16
	movq	%rsp, %rbp
	.cfi_def_cfa_register 6
	subq	$256, %rsp
	movq	%rdi, -232(%rbp)
	movl	%esi, -236(%rbp)
	movq	%rdx, -248(%rbp)
	movq	%rcx, -152(%rbp)
	movq	%r8, -144(%rbp)
	movq	%r9, -136(%rbp)
	testb	%al, %al
	je	.L763
	movaps	%xmm0, -128(%rbp)
	movaps	%xmm1, -112(%rbp)
	movaps	%xmm2, -96(%rbp)
	movaps	%xmm3, -80(%rbp)
	movaps	%xmm4, -64(%rbp)
	movaps	%xmm5, -48(%rbp)
	movaps	%xmm6, -32(%rbp)
	movaps	%xmm7, -16(%rbp)
.L763:
	.loc 7 1434 0
	movq	%fs:40, %rax
	movq	%rax, -184(%rbp)
	xorl	%eax, %eax
	.loc 7 1437 0
	movl	$24, -208(%rbp)
	movl	$48, -204(%rbp)
	leaq	16(%rbp), %rax
	movq	%rax, -200(%rbp)
	leaq	-176(%rbp), %rax
	movq	%rax, -192(%rbp)
	.loc 7 1439 0
	leaq	-208(%rbp), %rcx
	movq	-248(%rbp), %rdx
	movl	-236(%rbp), %esi
	movq	-232(%rbp), %rax
	movq	%rax, %rdi
	call	stbsp_vsnprintf
	movl	%eax, -212(%rbp)
	.loc 7 1442 0
	movl	-212(%rbp), %eax
	.loc 7 1443 0
	movq	-184(%rbp), %rdi
	xorq	%fs:40, %rdi
	je	.L765
	call	__stack_chk_fail@PLT
.L765:
	leave
	.cfi_def_cfa 7, 8
	ret
	.cfi_endproc
.LFE88:
	.size	stbsp_snprintf, .-stbsp_snprintf
	.globl	stbsp_vsprintf
	.type	stbsp_vsprintf, @function
stbsp_vsprintf:
.LFB89:
	.loc 7 1446 0
	.cfi_startproc
	pushq	%rbp
	.cfi_def_cfa_offset 16
	.cfi_offset 6, -16
	movq	%rsp, %rbp
	.cfi_def_cfa_register 6
	subq	$32, %rsp
	movq	%rdi, -8(%rbp)
	movq	%rsi, -16(%rbp)
	movq	%rdx, -24(%rbp)
	.loc 7 1447 0
	movq	-24(%rbp), %rcx
	movq	-16(%rbp), %rdx
	movq	-8(%rbp), %rax
	movq	%rcx, %r8
	movq	%rdx, %rcx
	movq	%rax, %rdx
	movl	$0, %esi
	movl	$0, %edi
	call	stbsp_vsprintfcb
	.loc 7 1448 0
	leave
	.cfi_def_cfa 7, 8
	ret
	.cfi_endproc
.LFE89:
	.size	stbsp_vsprintf, .-stbsp_vsprintf
	.type	_ZL20stbsp__real_to_partsPxPid, @function
_ZL20stbsp__real_to_partsPxPid:
.LFB90:
	.loc 7 1465 0
	.cfi_startproc
	pushq	%rbp
	.cfi_def_cfa_offset 16
	.cfi_offset 6, -16
	movq	%rsp, %rbp
	.cfi_def_cfa_register 6
	subq	$64, %rsp
	movq	%rdi, -40(%rbp)
	movq	%rsi, -48(%rbp)
	movsd	%xmm0, -56(%rbp)
	.loc 7 1465 0
	movq	%fs:40, %rax
	movq	%rax, -8(%rbp)
	xorl	%eax, %eax
	.loc 7 1467 0
	movq	$0, -16(%rbp)
	.loc 7 1470 0
	movsd	-56(%rbp), %xmm0
	movsd	%xmm0, -24(%rbp)
.LBB231:
	.loc 7 1472 0
	movl	$0, -28(%rbp)
.L770:
	.loc 7 1472 0 is_stmt 0 discriminator 3
	cmpl	$7, -28(%rbp)
	jg	.L769
	.loc 7 1472 0 discriminator 2
	movl	-28(%rbp), %eax
	cltq
	leaq	-24(%rbp), %rdx
	addq	%rdx, %rax
	movl	-28(%rbp), %edx
	movslq	%edx, %rdx
	leaq	-16(%rbp), %rcx
	addq	%rcx, %rdx
	movzbl	(%rax), %eax
	movb	%al, (%rdx)
	addl	$1, -28(%rbp)
	jmp	.L770
.L769:
.LBE231:
	.loc 7 1474 0 is_stmt 1
	movq	-16(%rbp), %rdx
	movabsq	$4503599627370495, %rax
	andq	%rax, %rdx
	movq	-40(%rbp), %rax
	movq	%rdx, (%rax)
	.loc 7 1475 0
	movq	-16(%rbp), %rax
	sarq	$52, %rax
	andl	$2047, %eax
	subl	$1023, %eax
	movl	%eax, %edx
	movq	-48(%rbp), %rax
	movl	%edx, (%rax)
	.loc 7 1477 0
	movq	-16(%rbp), %rax
	shrq	$63, %rax
	.loc 7 1478 0
	movq	-8(%rbp), %rsi
	xorq	%fs:40, %rsi
	je	.L772
	call	__stack_chk_fail@PLT
.L772:
	leave
	.cfi_def_cfa 7, 8
	ret
	.cfi_endproc
.LFE90:
	.size	_ZL20stbsp__real_to_partsPxPid, .-_ZL20stbsp__real_to_partsPxPid
	.section	.rodata
	.align 32
	.type	_ZL10stbsp__bot, @object
	.size	_ZL10stbsp__bot, 184
_ZL10stbsp__bot:
	.long	0
	.long	1072693248
	.long	0
	.long	1076101120
	.long	0
	.long	1079574528
	.long	0
	.long	1083129856
	.long	0
	.long	1086556160
	.long	0
	.long	1090021888
	.long	0
	.long	1093567616
	.long	0
	.long	1097011920
	.long	0
	.long	1100470148
	.long	0
	.long	1104006501
	.long	536870912
	.long	1107468383
	.long	3892314112
	.long	1110919286
	.long	2717908992
	.long	1114446484
	.long	3846176768
	.long	1117925532
	.long	512753664
	.long	1121369284
	.long	640942080
	.long	1124887541
	.long	937459712
	.long	1128383353
	.long	2245566464
	.long	1131820119
	.long	1733216256
	.long	1135329645
	.long	1620131072
	.long	1138841828
	.long	2025163840
	.long	1142271773
	.long	3605196624
	.long	1145772772
	.long	105764242
	.long	1149300943
	.align 32
	.type	_ZL13stbsp__negbot, @object
	.size	_ZL13stbsp__negbot, 176
_ZL13stbsp__negbot:
	.long	2576980378
	.long	1069128089
	.long	1202590843
	.long	1065646817
	.long	3539053052
	.long	1062232653
	.long	3944497965
	.long	1058682594
	.long	2296604913
	.long	1055193269
	.long	2696277389
	.long	1051772663
	.long	2596056904
	.long	1048238066
	.long	3794832442
	.long	1044740494
	.long	3894859413
	.long	1041313291
	.long	3654794683
	.long	1037794527
	.long	3782829205
	.long	1034288511
	.long	2167269905
	.long	1030854553
	.long	1749644930
	.long	1027352002
	.long	2258709403
	.long	1023837339
	.long	2665960982
	.long	1020396463
	.long	2547550652
	.long	1016910514
	.long	1179047063
	.long	1013386997
	.long	3520218028
	.long	1009939037
	.long	1337381548
	.long	1006470089
	.long	210911779
	.long	1002937505
	.long	168729423
	.long	999482292
	.long	269967078
	.long	996030752
	.align 32
	.type	_ZL16stbsp__negboterr, @object
	.size	_ZL16stbsp__negboterr, 176
_ZL16stbsp__negboterr:
	.long	2576980378
	.long	-1134978663
	.long	3951369912
	.long	-1139885999
	.long	3161095930
	.long	-1143434380
	.long	3841418750
	.long	-1145659039
	.long	2214141540
	.long	-1148262527
	.long	4188314668
	.long	994794083
	.long	2491658275
	.long	991289833
	.long	3744287892
	.long	-1160761309
	.long	3215702075
	.long	-1162656140
	.long	1709149484
	.long	-1166931372
	.long	2068654250
	.long	977795004
	.long	4042713222
	.long	972652327
	.long	2778783637
	.long	-1177629319
	.long	159596007
	.long	961455881
	.long	373814688
	.long	-1183238269
	.long	3957753753
	.long	958772418
	.long	134885417
	.long	-1190283342
	.long	107908334
	.long	-1193818584
	.long	513686791
	.long	948589235
	.long	2782455094
	.long	946295879
	.long	3084957534
	.long	943683231
	.long	3654002537
	.long	-1208322714
	.align 32
	.type	_ZL10stbsp__top, @object
	.size	_ZL10stbsp__top, 104
_ZL10stbsp__top:
	.long	3353430774
	.long	1152724226
	.long	3964941254
	.long	1232864933
	.long	2883886948
	.long	1312984008
	.long	3207089700
	.long	1393068963
	.long	4123177356
	.long	1473265193
	.long	3141655420
	.long	1553301320
	.long	785120244
	.long	1633448841
	.long	4170124093
	.long	1713558486
	.long	948276490
	.long	1793649409
	.long	1898189373
	.long	1873837381
	.long	1433696792
	.long	1953878734
	.long	2138321794
	.long	2034033171
	.long	966391728
	.long	2114133245
	.align 32
	.type	_ZL13stbsp__negtop, @object
	.size	_ZL13stbsp__negtop, 104
_ZL13stbsp__negtop:
	.long	1074967121
	.long	992488883
	.long	606885217
	.long	912409806
	.long	1693647620
	.long	832281443
	.long	3019316407
	.long	752147447
	.long	3876077104
	.long	672105863
	.long	1181794595
	.long	591909162
	.long	1107056733
	.long	511835875
	.long	1573069010
	.long	431698363
	.long	3396444605
	.long	351570978
	.long	2207357147
	.long	271518948
	.long	1917871272
	.long	191329795
	.long	4122087424
	.long	111262211
	.long	3015127087
	.long	31115687
	.align 32
	.type	_ZL13stbsp__toperr, @object
	.size	_ZL13stbsp__toperr, 104
_ZL13stbsp__toperr:
	.long	0
	.long	1096810496
	.long	3356355392
	.long	1173075266
	.long	3114972682
	.long	-890750080
	.long	3514439276
	.long	-811389406
	.long	2418939918
	.long	-732809722
	.long	2185637511
	.long	-651595849
	.long	738971665
	.long	-571254635
	.long	1990413164
	.long	-492336109
	.long	4230232799
	.long	-410946199
	.long	2828511910
	.long	-329411739
	.long	627123104
	.long	1897465100
	.long	3614230438
	.long	-170190951
	.long	962009656
	.long	-90041346
	.align 32
	.type	_ZL16stbsp__negtoperr, @object
	.size	_ZL16stbsp__negtoperr, 104
_ZL16stbsp__negtoperr:
	.long	3089752185
	.long	935410605
	.long	2369625956
	.long	-1293007191
	.long	562703205
	.long	775038919
	.long	2578055657
	.long	693229929
	.long	2667329890
	.long	-1532181982
	.long	576929914
	.long	-1611870134
	.long	4052197719
	.long	-1693303936
	.long	2437863698
	.long	-1772335582
	.long	3455332226
	.long	295420566
	.long	4108414945
	.long	-1932920345
	.long	1923649578
	.long	-2012550390
	.long	314651656
	.long	-2092031346
	.long	16388697
	.long	0
	.align 32
	.type	_ZL13stbsp__powten, @object
	.size	_ZL13stbsp__powten, 160
_ZL13stbsp__powten:
	.quad	1
	.quad	10
	.quad	100
	.quad	1000
	.quad	10000
	.quad	100000
	.quad	1000000
	.quad	10000000
	.quad	100000000
	.quad	1000000000
	.quad	10000000000
	.quad	100000000000
	.quad	1000000000000
	.quad	10000000000000
	.quad	100000000000000
	.quad	1000000000000000
	.quad	10000000000000000
	.quad	100000000000000000
	.quad	1000000000000000000
	.quad	-8446744073709551616
	.text
	.type	_ZL23stbsp__raise_to_power10PdS_di, @function
_ZL23stbsp__raise_to_power10PdS_di:
.LFB91:
	.loc 7 1612 0
	.cfi_startproc
	pushq	%rbp
	.cfi_def_cfa_offset 16
	.cfi_offset 6, -16
	movq	%rsp, %rbp
	.cfi_def_cfa_register 6
	subq	$336, %rsp
	movq	%rdi, -312(%rbp)
	movq	%rsi, -320(%rbp)
	movsd	%xmm0, -328(%rbp)
	movl	%edx, -332(%rbp)
	.loc 7 1612 0
	movq	%fs:40, %rax
	movq	%rax, -8(%rbp)
	xorl	%eax, %eax
.LBB232:
	.loc 7 1614 0
	cmpl	$0, -332(%rbp)
	js	.L774
	.loc 7 1614 0 is_stmt 0 discriminator 1
	cmpl	$22, -332(%rbp)
	jg	.L774
.LBB233:
.LBB234:
	.loc 7 1615 0 is_stmt 1
	pxor	%xmm0, %xmm0
	movsd	%xmm0, -184(%rbp)
	pxor	%xmm0, %xmm0
	movsd	%xmm0, -176(%rbp)
	movl	-332(%rbp), %eax
	cltq
	leaq	0(,%rax,8), %rdx
	leaq	_ZL10stbsp__bot(%rip), %rax
	movsd	(%rdx,%rax), %xmm1
	movsd	-328(%rbp), %xmm0
	mulsd	%xmm1, %xmm0
	movsd	%xmm0, -192(%rbp)
.LBB235:
	movl	$0, -300(%rbp)
.L776:
	.loc 7 1615 0 is_stmt 0 discriminator 4
	cmpl	$7, -300(%rbp)
	jg	.L775
	.loc 7 1615 0 discriminator 3
	movl	-300(%rbp), %eax
	cltq
	leaq	-328(%rbp), %rdx
	addq	%rdx, %rax
	movl	-300(%rbp), %edx
	movslq	%edx, %rdx
	leaq	-168(%rbp), %rcx
	addq	%rcx, %rdx
	movzbl	(%rax), %eax
	movb	%al, (%rdx)
	addl	$1, -300(%rbp)
	jmp	.L776
.L775:
.LBE235:
	.loc 7 1615 0 discriminator 2
	movq	-168(%rbp), %rax
	andq	$-134217728, %rax
	movq	%rax, -168(%rbp)
.LBB236:
	movl	$0, -296(%rbp)
.L778:
	.loc 7 1615 0 discriminator 8
	cmpl	$7, -296(%rbp)
	jg	.L777
	.loc 7 1615 0 discriminator 7
	movl	-296(%rbp), %eax
	cltq
	leaq	-168(%rbp), %rdx
	addq	%rdx, %rax
	movl	-296(%rbp), %edx
	movslq	%edx, %rdx
	leaq	-184(%rbp), %rcx
	addq	%rcx, %rdx
	movzbl	(%rax), %eax
	movb	%al, (%rdx)
	addl	$1, -296(%rbp)
	jmp	.L778
.L777:
.LBE236:
	.loc 7 1615 0 discriminator 6
	movsd	-328(%rbp), %xmm0
	movsd	-184(%rbp), %xmm1
	subsd	%xmm1, %xmm0
	movsd	%xmm0, -152(%rbp)
.LBB237:
	movl	$0, -292(%rbp)
.L780:
	.loc 7 1615 0 discriminator 12
	cmpl	$7, -292(%rbp)
	jg	.L779
	.loc 7 1615 0 discriminator 11
	movl	-332(%rbp), %eax
	cltq
	leaq	0(,%rax,8), %rdx
	leaq	_ZL10stbsp__bot(%rip), %rax
	addq	%rax, %rdx
	movl	-292(%rbp), %eax
	cltq
	addq	%rdx, %rax
	movl	-292(%rbp), %edx
	movslq	%edx, %rdx
	leaq	-168(%rbp), %rcx
	addq	%rcx, %rdx
	movzbl	(%rax), %eax
	movb	%al, (%rdx)
	addl	$1, -292(%rbp)
	jmp	.L780
.L779:
.LBE237:
	.loc 7 1615 0 discriminator 10
	movq	-168(%rbp), %rax
	andq	$-134217728, %rax
	movq	%rax, -168(%rbp)
.LBB238:
	movl	$0, -288(%rbp)
.L782:
	.loc 7 1615 0 discriminator 16
	cmpl	$7, -288(%rbp)
	jg	.L781
	.loc 7 1615 0 discriminator 15
	movl	-288(%rbp), %eax
	cltq
	leaq	-168(%rbp), %rdx
	addq	%rdx, %rax
	movl	-288(%rbp), %edx
	movslq	%edx, %rdx
	leaq	-176(%rbp), %rcx
	addq	%rcx, %rdx
	movzbl	(%rax), %eax
	movb	%al, (%rdx)
	addl	$1, -288(%rbp)
	jmp	.L782
.L781:
.LBE238:
	.loc 7 1615 0 discriminator 14
	movl	-332(%rbp), %eax
	cltq
	leaq	0(,%rax,8), %rdx
	leaq	_ZL10stbsp__bot(%rip), %rax
	movsd	(%rdx,%rax), %xmm0
	movsd	-176(%rbp), %xmm1
	subsd	%xmm1, %xmm0
	movsd	%xmm0, -144(%rbp)
	movsd	-184(%rbp), %xmm1
	movsd	-176(%rbp), %xmm0
	mulsd	%xmm1, %xmm0
	movsd	-192(%rbp), %xmm1
	subsd	%xmm1, %xmm0
	movapd	%xmm0, %xmm1
	movsd	-184(%rbp), %xmm0
	mulsd	-144(%rbp), %xmm0
	addsd	%xmm0, %xmm1
	movsd	-176(%rbp), %xmm0
	mulsd	-152(%rbp), %xmm0
	addsd	%xmm0, %xmm1
	movsd	-152(%rbp), %xmm0
	mulsd	-144(%rbp), %xmm0
	addsd	%xmm1, %xmm0
	movsd	%xmm0, -160(%rbp)
.LBE234:
.LBE233:
	jmp	.L783
.L774:
.LBB239:
	.loc 7 1620 0 is_stmt 1
	movl	-332(%rbp), %eax
	movl	%eax, -284(%rbp)
	.loc 7 1621 0
	cmpl	$0, -332(%rbp)
	jns	.L784
	.loc 7 1622 0
	negl	-284(%rbp)
.L784:
	.loc 7 1623 0
	movl	-284(%rbp), %eax
	imull	$713, %eax, %eax
	sarl	$14, %eax
	movl	%eax, -280(%rbp)
	.loc 7 1624 0
	cmpl	$13, -280(%rbp)
	jle	.L785
	.loc 7 1625 0
	movl	$13, -280(%rbp)
.L785:
	.loc 7 1626 0
	movl	-280(%rbp), %eax
	imull	$-23, %eax, %edx
	movl	-284(%rbp), %eax
	addl	%edx, %eax
	movl	%eax, -276(%rbp)
	.loc 7 1628 0
	movsd	-328(%rbp), %xmm0
	movsd	%xmm0, -192(%rbp)
	.loc 7 1629 0
	pxor	%xmm0, %xmm0
	movsd	%xmm0, -160(%rbp)
.LBB240:
	.loc 7 1630 0
	cmpl	$0, -332(%rbp)
	jns	.L786
.LBB241:
.LBB242:
	.loc 7 1631 0
	cmpl	$0, -276(%rbp)
	je	.L787
.LBB243:
	.loc 7 1632 0
	subl	$1, -276(%rbp)
.LBB244:
	.loc 7 1633 0
	pxor	%xmm0, %xmm0
	movsd	%xmm0, -184(%rbp)
	pxor	%xmm0, %xmm0
	movsd	%xmm0, -176(%rbp)
	movl	-276(%rbp), %eax
	cltq
	leaq	0(,%rax,8), %rdx
	leaq	_ZL13stbsp__negbot(%rip), %rax
	movsd	(%rdx,%rax), %xmm1
	movsd	-328(%rbp), %xmm0
	mulsd	%xmm1, %xmm0
	movsd	%xmm0, -192(%rbp)
.LBB245:
	movl	$0, -272(%rbp)
.L789:
	.loc 7 1633 0 is_stmt 0 discriminator 4
	cmpl	$7, -272(%rbp)
	jg	.L788
	.loc 7 1633 0 discriminator 3
	movl	-272(%rbp), %eax
	cltq
	leaq	-328(%rbp), %rdx
	addq	%rdx, %rax
	movl	-272(%rbp), %edx
	movslq	%edx, %rdx
	leaq	-168(%rbp), %rcx
	addq	%rcx, %rdx
	movzbl	(%rax), %eax
	movb	%al, (%rdx)
	addl	$1, -272(%rbp)
	jmp	.L789
.L788:
.LBE245:
	.loc 7 1633 0 discriminator 2
	movq	-168(%rbp), %rax
	andq	$-134217728, %rax
	movq	%rax, -168(%rbp)
.LBB246:
	movl	$0, -268(%rbp)
.L791:
	.loc 7 1633 0 discriminator 8
	cmpl	$7, -268(%rbp)
	jg	.L790
	.loc 7 1633 0 discriminator 7
	movl	-268(%rbp), %eax
	cltq
	leaq	-168(%rbp), %rdx
	addq	%rdx, %rax
	movl	-268(%rbp), %edx
	movslq	%edx, %rdx
	leaq	-184(%rbp), %rcx
	addq	%rcx, %rdx
	movzbl	(%rax), %eax
	movb	%al, (%rdx)
	addl	$1, -268(%rbp)
	jmp	.L791
.L790:
.LBE246:
	.loc 7 1633 0 discriminator 6
	movsd	-328(%rbp), %xmm0
	movsd	-184(%rbp), %xmm1
	subsd	%xmm1, %xmm0
	movsd	%xmm0, -56(%rbp)
.LBB247:
	movl	$0, -264(%rbp)
.L793:
	.loc 7 1633 0 discriminator 12
	cmpl	$7, -264(%rbp)
	jg	.L792
	.loc 7 1633 0 discriminator 11
	movl	-276(%rbp), %eax
	cltq
	leaq	0(,%rax,8), %rdx
	leaq	_ZL13stbsp__negbot(%rip), %rax
	addq	%rax, %rdx
	movl	-264(%rbp), %eax
	cltq
	addq	%rdx, %rax
	movl	-264(%rbp), %edx
	movslq	%edx, %rdx
	leaq	-168(%rbp), %rcx
	addq	%rcx, %rdx
	movzbl	(%rax), %eax
	movb	%al, (%rdx)
	addl	$1, -264(%rbp)
	jmp	.L793
.L792:
.LBE247:
	.loc 7 1633 0 discriminator 10
	movq	-168(%rbp), %rax
	andq	$-134217728, %rax
	movq	%rax, -168(%rbp)
.LBB248:
	movl	$0, -260(%rbp)
.L795:
	.loc 7 1633 0 discriminator 16
	cmpl	$7, -260(%rbp)
	jg	.L794
	.loc 7 1633 0 discriminator 15
	movl	-260(%rbp), %eax
	cltq
	leaq	-168(%rbp), %rdx
	addq	%rdx, %rax
	movl	-260(%rbp), %edx
	movslq	%edx, %rdx
	leaq	-176(%rbp), %rcx
	addq	%rcx, %rdx
	movzbl	(%rax), %eax
	movb	%al, (%rdx)
	addl	$1, -260(%rbp)
	jmp	.L795
.L794:
.LBE248:
	.loc 7 1633 0 discriminator 14
	movl	-276(%rbp), %eax
	cltq
	leaq	0(,%rax,8), %rdx
	leaq	_ZL13stbsp__negbot(%rip), %rax
	movsd	(%rdx,%rax), %xmm0
	movsd	-176(%rbp), %xmm1
	subsd	%xmm1, %xmm0
	movsd	%xmm0, -48(%rbp)
	movsd	-184(%rbp), %xmm1
	movsd	-176(%rbp), %xmm0
	mulsd	%xmm1, %xmm0
	movsd	-192(%rbp), %xmm1
	subsd	%xmm1, %xmm0
	movapd	%xmm0, %xmm1
	movsd	-184(%rbp), %xmm0
	mulsd	-48(%rbp), %xmm0
	addsd	%xmm0, %xmm1
	movsd	-176(%rbp), %xmm0
	mulsd	-56(%rbp), %xmm0
	addsd	%xmm0, %xmm1
	movsd	-56(%rbp), %xmm0
	mulsd	-48(%rbp), %xmm0
	addsd	%xmm1, %xmm0
	movsd	%xmm0, -160(%rbp)
.LBE244:
	.loc 7 1634 0 is_stmt 1 discriminator 14
	movl	-276(%rbp), %eax
	cltq
	leaq	0(,%rax,8), %rdx
	leaq	_ZL16stbsp__negboterr(%rip), %rax
	movsd	(%rdx,%rax), %xmm1
	movsd	-328(%rbp), %xmm0
	mulsd	%xmm1, %xmm0
	movsd	-160(%rbp), %xmm1
	addsd	%xmm1, %xmm0
	movsd	%xmm0, -160(%rbp)
.L787:
.LBE243:
.LBE242:
.LBB249:
	.loc 7 1636 0
	cmpl	$0, -280(%rbp)
	je	.L783
.LBB250:
.LBB251:
	.loc 7 1637 0
	movsd	-192(%rbp), %xmm0
	movsd	-160(%rbp), %xmm1
	addsd	%xmm1, %xmm0
	movsd	%xmm0, -40(%rbp)
	movsd	-192(%rbp), %xmm1
	movsd	-40(%rbp), %xmm0
	subsd	%xmm1, %xmm0
	movsd	-160(%rbp), %xmm1
	subsd	%xmm0, %xmm1
	movapd	%xmm1, %xmm0
	movsd	%xmm0, -160(%rbp)
	movsd	-40(%rbp), %xmm0
	movsd	%xmm0, -192(%rbp)
.LBE251:
	.loc 7 1638 0
	subl	$1, -280(%rbp)
.LBB252:
	.loc 7 1639 0
	pxor	%xmm0, %xmm0
	movsd	%xmm0, -184(%rbp)
	pxor	%xmm0, %xmm0
	movsd	%xmm0, -176(%rbp)
	movl	-280(%rbp), %eax
	cltq
	leaq	0(,%rax,8), %rdx
	leaq	_ZL13stbsp__negtop(%rip), %rax
	movsd	(%rdx,%rax), %xmm1
	movsd	-192(%rbp), %xmm0
	mulsd	%xmm1, %xmm0
	movsd	%xmm0, -112(%rbp)
.LBB253:
	movl	$0, -256(%rbp)
.L798:
	.loc 7 1639 0 is_stmt 0 discriminator 4
	cmpl	$7, -256(%rbp)
	jg	.L797
	.loc 7 1639 0 discriminator 3
	movl	-256(%rbp), %eax
	cltq
	leaq	-192(%rbp), %rdx
	addq	%rdx, %rax
	movl	-256(%rbp), %edx
	movslq	%edx, %rdx
	leaq	-168(%rbp), %rcx
	addq	%rcx, %rdx
	movzbl	(%rax), %eax
	movb	%al, (%rdx)
	addl	$1, -256(%rbp)
	jmp	.L798
.L797:
.LBE253:
	.loc 7 1639 0 discriminator 2
	movq	-168(%rbp), %rax
	andq	$-134217728, %rax
	movq	%rax, -168(%rbp)
.LBB254:
	movl	$0, -252(%rbp)
.L800:
	.loc 7 1639 0 discriminator 8
	cmpl	$7, -252(%rbp)
	jg	.L799
	.loc 7 1639 0 discriminator 7
	movl	-252(%rbp), %eax
	cltq
	leaq	-168(%rbp), %rdx
	addq	%rdx, %rax
	movl	-252(%rbp), %edx
	movslq	%edx, %rdx
	leaq	-184(%rbp), %rcx
	addq	%rcx, %rdx
	movzbl	(%rax), %eax
	movb	%al, (%rdx)
	addl	$1, -252(%rbp)
	jmp	.L800
.L799:
.LBE254:
	.loc 7 1639 0 discriminator 6
	movsd	-192(%rbp), %xmm0
	movsd	-184(%rbp), %xmm1
	subsd	%xmm1, %xmm0
	movsd	%xmm0, -32(%rbp)
.LBB255:
	movl	$0, -248(%rbp)
.L802:
	.loc 7 1639 0 discriminator 12
	cmpl	$7, -248(%rbp)
	jg	.L801
	.loc 7 1639 0 discriminator 11
	movl	-280(%rbp), %eax
	cltq
	leaq	0(,%rax,8), %rdx
	leaq	_ZL13stbsp__negtop(%rip), %rax
	addq	%rax, %rdx
	movl	-248(%rbp), %eax
	cltq
	addq	%rdx, %rax
	movl	-248(%rbp), %edx
	movslq	%edx, %rdx
	leaq	-168(%rbp), %rcx
	addq	%rcx, %rdx
	movzbl	(%rax), %eax
	movb	%al, (%rdx)
	addl	$1, -248(%rbp)
	jmp	.L802
.L801:
.LBE255:
	.loc 7 1639 0 discriminator 10
	movq	-168(%rbp), %rax
	andq	$-134217728, %rax
	movq	%rax, -168(%rbp)
.LBB256:
	movl	$0, -244(%rbp)
.L804:
	.loc 7 1639 0 discriminator 16
	cmpl	$7, -244(%rbp)
	jg	.L803
	.loc 7 1639 0 discriminator 15
	movl	-244(%rbp), %eax
	cltq
	leaq	-168(%rbp), %rdx
	addq	%rdx, %rax
	movl	-244(%rbp), %edx
	movslq	%edx, %rdx
	leaq	-176(%rbp), %rcx
	addq	%rcx, %rdx
	movzbl	(%rax), %eax
	movb	%al, (%rdx)
	addl	$1, -244(%rbp)
	jmp	.L804
.L803:
.LBE256:
	.loc 7 1639 0 discriminator 14
	movl	-280(%rbp), %eax
	cltq
	leaq	0(,%rax,8), %rdx
	leaq	_ZL13stbsp__negtop(%rip), %rax
	movsd	(%rdx,%rax), %xmm0
	movsd	-176(%rbp), %xmm1
	subsd	%xmm1, %xmm0
	movsd	%xmm0, -24(%rbp)
	movsd	-184(%rbp), %xmm1
	movsd	-176(%rbp), %xmm0
	mulsd	%xmm1, %xmm0
	movapd	%xmm0, %xmm1
	subsd	-112(%rbp), %xmm1
	movsd	-184(%rbp), %xmm0
	mulsd	-24(%rbp), %xmm0
	addsd	%xmm0, %xmm1
	movsd	-176(%rbp), %xmm0
	mulsd	-32(%rbp), %xmm0
	addsd	%xmm0, %xmm1
	movsd	-32(%rbp), %xmm0
	mulsd	-24(%rbp), %xmm0
	addsd	%xmm1, %xmm0
	movsd	%xmm0, -88(%rbp)
.LBE252:
	.loc 7 1640 0 is_stmt 1 discriminator 14
	movl	-280(%rbp), %eax
	cltq
	leaq	0(,%rax,8), %rdx
	leaq	_ZL16stbsp__negtoperr(%rip), %rax
	movsd	(%rdx,%rax), %xmm1
	movsd	-192(%rbp), %xmm0
	mulsd	%xmm0, %xmm1
	movl	-280(%rbp), %eax
	cltq
	leaq	0(,%rax,8), %rdx
	leaq	_ZL13stbsp__negtop(%rip), %rax
	movsd	(%rdx,%rax), %xmm0
	mulsd	-160(%rbp), %xmm0
	addsd	%xmm1, %xmm0
	movsd	-88(%rbp), %xmm1
	addsd	%xmm1, %xmm0
	movsd	%xmm0, -88(%rbp)
	.loc 7 1641 0 discriminator 14
	movsd	-112(%rbp), %xmm0
	movsd	%xmm0, -192(%rbp)
	.loc 7 1642 0 discriminator 14
	movsd	-88(%rbp), %xmm0
	movsd	%xmm0, -160(%rbp)
.LBE250:
	jmp	.L783
.L786:
.LBE249:
.LBE241:
.LBB257:
.LBB258:
	.loc 7 1645 0
	cmpl	$0, -276(%rbp)
	je	.L805
.LBB259:
	.loc 7 1646 0
	movl	-276(%rbp), %eax
	movl	%eax, -284(%rbp)
	.loc 7 1647 0
	cmpl	$22, -276(%rbp)
	jle	.L806
	.loc 7 1648 0
	movl	$22, -276(%rbp)
.L806:
	.loc 7 1649 0
	movl	-276(%rbp), %eax
	subl	%eax, -284(%rbp)
.LBB260:
	.loc 7 1650 0
	pxor	%xmm0, %xmm0
	movsd	%xmm0, -184(%rbp)
	pxor	%xmm0, %xmm0
	movsd	%xmm0, -176(%rbp)
	movl	-276(%rbp), %eax
	cltq
	leaq	0(,%rax,8), %rdx
	leaq	_ZL10stbsp__bot(%rip), %rax
	movsd	(%rdx,%rax), %xmm1
	movsd	-328(%rbp), %xmm0
	mulsd	%xmm1, %xmm0
	movsd	%xmm0, -192(%rbp)
.LBB261:
	movl	$0, -240(%rbp)
.L808:
	.loc 7 1650 0 is_stmt 0 discriminator 4
	cmpl	$7, -240(%rbp)
	jg	.L807
	.loc 7 1650 0 discriminator 3
	movl	-240(%rbp), %eax
	cltq
	leaq	-328(%rbp), %rdx
	addq	%rdx, %rax
	movl	-240(%rbp), %edx
	movslq	%edx, %rdx
	leaq	-168(%rbp), %rcx
	addq	%rcx, %rdx
	movzbl	(%rax), %eax
	movb	%al, (%rdx)
	addl	$1, -240(%rbp)
	jmp	.L808
.L807:
.LBE261:
	.loc 7 1650 0 discriminator 2
	movq	-168(%rbp), %rax
	andq	$-134217728, %rax
	movq	%rax, -168(%rbp)
.LBB262:
	movl	$0, -236(%rbp)
.L810:
	.loc 7 1650 0 discriminator 8
	cmpl	$7, -236(%rbp)
	jg	.L809
	.loc 7 1650 0 discriminator 7
	movl	-236(%rbp), %eax
	cltq
	leaq	-168(%rbp), %rdx
	addq	%rdx, %rax
	movl	-236(%rbp), %edx
	movslq	%edx, %rdx
	leaq	-184(%rbp), %rcx
	addq	%rcx, %rdx
	movzbl	(%rax), %eax
	movb	%al, (%rdx)
	addl	$1, -236(%rbp)
	jmp	.L810
.L809:
.LBE262:
	.loc 7 1650 0 discriminator 6
	movsd	-328(%rbp), %xmm0
	movsd	-184(%rbp), %xmm1
	subsd	%xmm1, %xmm0
	movsd	%xmm0, -136(%rbp)
.LBB263:
	movl	$0, -232(%rbp)
.L812:
	.loc 7 1650 0 discriminator 12
	cmpl	$7, -232(%rbp)
	jg	.L811
	.loc 7 1650 0 discriminator 11
	movl	-276(%rbp), %eax
	cltq
	leaq	0(,%rax,8), %rdx
	leaq	_ZL10stbsp__bot(%rip), %rax
	addq	%rax, %rdx
	movl	-232(%rbp), %eax
	cltq
	addq	%rdx, %rax
	movl	-232(%rbp), %edx
	movslq	%edx, %rdx
	leaq	-168(%rbp), %rcx
	addq	%rcx, %rdx
	movzbl	(%rax), %eax
	movb	%al, (%rdx)
	addl	$1, -232(%rbp)
	jmp	.L812
.L811:
.LBE263:
	.loc 7 1650 0 discriminator 10
	movq	-168(%rbp), %rax
	andq	$-134217728, %rax
	movq	%rax, -168(%rbp)
.LBB264:
	movl	$0, -228(%rbp)
.L814:
	.loc 7 1650 0 discriminator 16
	cmpl	$7, -228(%rbp)
	jg	.L813
	.loc 7 1650 0 discriminator 15
	movl	-228(%rbp), %eax
	cltq
	leaq	-168(%rbp), %rdx
	addq	%rdx, %rax
	movl	-228(%rbp), %edx
	movslq	%edx, %rdx
	leaq	-176(%rbp), %rcx
	addq	%rcx, %rdx
	movzbl	(%rax), %eax
	movb	%al, (%rdx)
	addl	$1, -228(%rbp)
	jmp	.L814
.L813:
.LBE264:
	.loc 7 1650 0 discriminator 14
	movl	-276(%rbp), %eax
	cltq
	leaq	0(,%rax,8), %rdx
	leaq	_ZL10stbsp__bot(%rip), %rax
	movsd	(%rdx,%rax), %xmm0
	movsd	-176(%rbp), %xmm1
	subsd	%xmm1, %xmm0
	movsd	%xmm0, -128(%rbp)
	movsd	-184(%rbp), %xmm1
	movsd	-176(%rbp), %xmm0
	mulsd	%xmm1, %xmm0
	movsd	-192(%rbp), %xmm1
	subsd	%xmm1, %xmm0
	movapd	%xmm0, %xmm1
	movsd	-184(%rbp), %xmm0
	mulsd	-128(%rbp), %xmm0
	addsd	%xmm0, %xmm1
	movsd	-176(%rbp), %xmm0
	mulsd	-136(%rbp), %xmm0
	addsd	%xmm0, %xmm1
	movsd	-136(%rbp), %xmm0
	mulsd	-128(%rbp), %xmm0
	addsd	%xmm1, %xmm0
	movsd	%xmm0, -160(%rbp)
.LBE260:
.LBB265:
	.loc 7 1651 0 is_stmt 1 discriminator 14
	cmpl	$0, -284(%rbp)
	je	.L805
.LBB266:
.LBB267:
	.loc 7 1652 0
	movsd	-192(%rbp), %xmm0
	movsd	-160(%rbp), %xmm1
	addsd	%xmm1, %xmm0
	movsd	%xmm0, -120(%rbp)
	movsd	-192(%rbp), %xmm1
	movsd	-120(%rbp), %xmm0
	subsd	%xmm1, %xmm0
	movsd	-160(%rbp), %xmm1
	subsd	%xmm0, %xmm1
	movapd	%xmm1, %xmm0
	movsd	%xmm0, -160(%rbp)
	movsd	-120(%rbp), %xmm0
	movsd	%xmm0, -192(%rbp)
.LBE267:
.LBB268:
	.loc 7 1653 0
	pxor	%xmm0, %xmm0
	movsd	%xmm0, -184(%rbp)
	pxor	%xmm0, %xmm0
	movsd	%xmm0, -176(%rbp)
	movl	-284(%rbp), %eax
	cltq
	leaq	0(,%rax,8), %rdx
	leaq	_ZL10stbsp__bot(%rip), %rax
	movsd	(%rdx,%rax), %xmm1
	movsd	-192(%rbp), %xmm0
	mulsd	%xmm1, %xmm0
	movsd	%xmm0, -112(%rbp)
.LBB269:
	movl	$0, -224(%rbp)
.L817:
	.loc 7 1653 0 is_stmt 0 discriminator 4
	cmpl	$7, -224(%rbp)
	jg	.L816
	.loc 7 1653 0 discriminator 3
	movl	-224(%rbp), %eax
	cltq
	leaq	-192(%rbp), %rdx
	addq	%rdx, %rax
	movl	-224(%rbp), %edx
	movslq	%edx, %rdx
	leaq	-168(%rbp), %rcx
	addq	%rcx, %rdx
	movzbl	(%rax), %eax
	movb	%al, (%rdx)
	addl	$1, -224(%rbp)
	jmp	.L817
.L816:
.LBE269:
	.loc 7 1653 0 discriminator 2
	movq	-168(%rbp), %rax
	andq	$-134217728, %rax
	movq	%rax, -168(%rbp)
.LBB270:
	movl	$0, -220(%rbp)
.L819:
	.loc 7 1653 0 discriminator 8
	cmpl	$7, -220(%rbp)
	jg	.L818
	.loc 7 1653 0 discriminator 7
	movl	-220(%rbp), %eax
	cltq
	leaq	-168(%rbp), %rdx
	addq	%rdx, %rax
	movl	-220(%rbp), %edx
	movslq	%edx, %rdx
	leaq	-184(%rbp), %rcx
	addq	%rcx, %rdx
	movzbl	(%rax), %eax
	movb	%al, (%rdx)
	addl	$1, -220(%rbp)
	jmp	.L819
.L818:
.LBE270:
	.loc 7 1653 0 discriminator 6
	movsd	-192(%rbp), %xmm0
	movsd	-184(%rbp), %xmm1
	subsd	%xmm1, %xmm0
	movsd	%xmm0, -104(%rbp)
.LBB271:
	movl	$0, -216(%rbp)
.L821:
	.loc 7 1653 0 discriminator 12
	cmpl	$7, -216(%rbp)
	jg	.L820
	.loc 7 1653 0 discriminator 11
	movl	-284(%rbp), %eax
	cltq
	leaq	0(,%rax,8), %rdx
	leaq	_ZL10stbsp__bot(%rip), %rax
	addq	%rax, %rdx
	movl	-216(%rbp), %eax
	cltq
	addq	%rdx, %rax
	movl	-216(%rbp), %edx
	movslq	%edx, %rdx
	leaq	-168(%rbp), %rcx
	addq	%rcx, %rdx
	movzbl	(%rax), %eax
	movb	%al, (%rdx)
	addl	$1, -216(%rbp)
	jmp	.L821
.L820:
.LBE271:
	.loc 7 1653 0 discriminator 10
	movq	-168(%rbp), %rax
	andq	$-134217728, %rax
	movq	%rax, -168(%rbp)
.LBB272:
	movl	$0, -212(%rbp)
.L823:
	.loc 7 1653 0 discriminator 16
	cmpl	$7, -212(%rbp)
	jg	.L822
	.loc 7 1653 0 discriminator 15
	movl	-212(%rbp), %eax
	cltq
	leaq	-168(%rbp), %rdx
	addq	%rdx, %rax
	movl	-212(%rbp), %edx
	movslq	%edx, %rdx
	leaq	-176(%rbp), %rcx
	addq	%rcx, %rdx
	movzbl	(%rax), %eax
	movb	%al, (%rdx)
	addl	$1, -212(%rbp)
	jmp	.L823
.L822:
.LBE272:
	.loc 7 1653 0 discriminator 14
	movl	-284(%rbp), %eax
	cltq
	leaq	0(,%rax,8), %rdx
	leaq	_ZL10stbsp__bot(%rip), %rax
	movsd	(%rdx,%rax), %xmm0
	movsd	-176(%rbp), %xmm1
	subsd	%xmm1, %xmm0
	movsd	%xmm0, -96(%rbp)
	movsd	-184(%rbp), %xmm1
	movsd	-176(%rbp), %xmm0
	mulsd	%xmm1, %xmm0
	movapd	%xmm0, %xmm1
	subsd	-112(%rbp), %xmm1
	movsd	-184(%rbp), %xmm0
	mulsd	-96(%rbp), %xmm0
	addsd	%xmm0, %xmm1
	movsd	-176(%rbp), %xmm0
	mulsd	-104(%rbp), %xmm0
	addsd	%xmm0, %xmm1
	movsd	-104(%rbp), %xmm0
	mulsd	-96(%rbp), %xmm0
	addsd	%xmm1, %xmm0
	movsd	%xmm0, -88(%rbp)
.LBE268:
	.loc 7 1654 0 is_stmt 1 discriminator 14
	movl	-284(%rbp), %eax
	cltq
	leaq	0(,%rax,8), %rdx
	leaq	_ZL10stbsp__bot(%rip), %rax
	movsd	(%rdx,%rax), %xmm0
	mulsd	-160(%rbp), %xmm0
	movsd	-88(%rbp), %xmm1
	addsd	%xmm1, %xmm0
	movsd	%xmm0, -88(%rbp)
	.loc 7 1655 0 discriminator 14
	movsd	-112(%rbp), %xmm0
	movsd	%xmm0, -192(%rbp)
	.loc 7 1656 0 discriminator 14
	movsd	-88(%rbp), %xmm0
	movsd	%xmm0, -160(%rbp)
.L805:
.LBE266:
.LBE265:
.LBE259:
.LBE258:
.LBB273:
	.loc 7 1659 0
	cmpl	$0, -280(%rbp)
	je	.L783
.LBB274:
.LBB275:
	.loc 7 1660 0
	movsd	-192(%rbp), %xmm0
	movsd	-160(%rbp), %xmm1
	addsd	%xmm1, %xmm0
	movsd	%xmm0, -80(%rbp)
	movsd	-192(%rbp), %xmm1
	movsd	-80(%rbp), %xmm0
	subsd	%xmm1, %xmm0
	movsd	-160(%rbp), %xmm1
	subsd	%xmm0, %xmm1
	movapd	%xmm1, %xmm0
	movsd	%xmm0, -160(%rbp)
	movsd	-80(%rbp), %xmm0
	movsd	%xmm0, -192(%rbp)
.LBE275:
	.loc 7 1661 0
	subl	$1, -280(%rbp)
.LBB276:
	.loc 7 1662 0
	pxor	%xmm0, %xmm0
	movsd	%xmm0, -184(%rbp)
	pxor	%xmm0, %xmm0
	movsd	%xmm0, -176(%rbp)
	movl	-280(%rbp), %eax
	cltq
	leaq	0(,%rax,8), %rdx
	leaq	_ZL10stbsp__top(%rip), %rax
	movsd	(%rdx,%rax), %xmm1
	movsd	-192(%rbp), %xmm0
	mulsd	%xmm1, %xmm0
	movsd	%xmm0, -112(%rbp)
.LBB277:
	movl	$0, -208(%rbp)
.L825:
	.loc 7 1662 0 is_stmt 0 discriminator 4
	cmpl	$7, -208(%rbp)
	jg	.L824
	.loc 7 1662 0 discriminator 3
	movl	-208(%rbp), %eax
	cltq
	leaq	-192(%rbp), %rdx
	addq	%rdx, %rax
	movl	-208(%rbp), %edx
	movslq	%edx, %rdx
	leaq	-168(%rbp), %rcx
	addq	%rcx, %rdx
	movzbl	(%rax), %eax
	movb	%al, (%rdx)
	addl	$1, -208(%rbp)
	jmp	.L825
.L824:
.LBE277:
	.loc 7 1662 0 discriminator 2
	movq	-168(%rbp), %rax
	andq	$-134217728, %rax
	movq	%rax, -168(%rbp)
.LBB278:
	movl	$0, -204(%rbp)
.L827:
	.loc 7 1662 0 discriminator 8
	cmpl	$7, -204(%rbp)
	jg	.L826
	.loc 7 1662 0 discriminator 7
	movl	-204(%rbp), %eax
	cltq
	leaq	-168(%rbp), %rdx
	addq	%rdx, %rax
	movl	-204(%rbp), %edx
	movslq	%edx, %rdx
	leaq	-184(%rbp), %rcx
	addq	%rcx, %rdx
	movzbl	(%rax), %eax
	movb	%al, (%rdx)
	addl	$1, -204(%rbp)
	jmp	.L827
.L826:
.LBE278:
	.loc 7 1662 0 discriminator 6
	movsd	-192(%rbp), %xmm0
	movsd	-184(%rbp), %xmm1
	subsd	%xmm1, %xmm0
	movsd	%xmm0, -72(%rbp)
.LBB279:
	movl	$0, -200(%rbp)
.L829:
	.loc 7 1662 0 discriminator 12
	cmpl	$7, -200(%rbp)
	jg	.L828
	.loc 7 1662 0 discriminator 11
	movl	-280(%rbp), %eax
	cltq
	leaq	0(,%rax,8), %rdx
	leaq	_ZL10stbsp__top(%rip), %rax
	addq	%rax, %rdx
	movl	-200(%rbp), %eax
	cltq
	addq	%rdx, %rax
	movl	-200(%rbp), %edx
	movslq	%edx, %rdx
	leaq	-168(%rbp), %rcx
	addq	%rcx, %rdx
	movzbl	(%rax), %eax
	movb	%al, (%rdx)
	addl	$1, -200(%rbp)
	jmp	.L829
.L828:
.LBE279:
	.loc 7 1662 0 discriminator 10
	movq	-168(%rbp), %rax
	andq	$-134217728, %rax
	movq	%rax, -168(%rbp)
.LBB280:
	movl	$0, -196(%rbp)
.L831:
	.loc 7 1662 0 discriminator 16
	cmpl	$7, -196(%rbp)
	jg	.L830
	.loc 7 1662 0 discriminator 15
	movl	-196(%rbp), %eax
	cltq
	leaq	-168(%rbp), %rdx
	addq	%rdx, %rax
	movl	-196(%rbp), %edx
	movslq	%edx, %rdx
	leaq	-176(%rbp), %rcx
	addq	%rcx, %rdx
	movzbl	(%rax), %eax
	movb	%al, (%rdx)
	addl	$1, -196(%rbp)
	jmp	.L831
.L830:
.LBE280:
	.loc 7 1662 0 discriminator 14
	movl	-280(%rbp), %eax
	cltq
	leaq	0(,%rax,8), %rdx
	leaq	_ZL10stbsp__top(%rip), %rax
	movsd	(%rdx,%rax), %xmm0
	movsd	-176(%rbp), %xmm1
	subsd	%xmm1, %xmm0
	movsd	%xmm0, -64(%rbp)
	movsd	-184(%rbp), %xmm1
	movsd	-176(%rbp), %xmm0
	mulsd	%xmm1, %xmm0
	movapd	%xmm0, %xmm1
	subsd	-112(%rbp), %xmm1
	movsd	-184(%rbp), %xmm0
	mulsd	-64(%rbp), %xmm0
	addsd	%xmm0, %xmm1
	movsd	-176(%rbp), %xmm0
	mulsd	-72(%rbp), %xmm0
	addsd	%xmm0, %xmm1
	movsd	-72(%rbp), %xmm0
	mulsd	-64(%rbp), %xmm0
	addsd	%xmm1, %xmm0
	movsd	%xmm0, -88(%rbp)
.LBE276:
	.loc 7 1663 0 is_stmt 1 discriminator 14
	movl	-280(%rbp), %eax
	cltq
	leaq	0(,%rax,8), %rdx
	leaq	_ZL13stbsp__toperr(%rip), %rax
	movsd	(%rdx,%rax), %xmm1
	movsd	-192(%rbp), %xmm0
	mulsd	%xmm0, %xmm1
	movl	-280(%rbp), %eax
	cltq
	leaq	0(,%rax,8), %rdx
	leaq	_ZL10stbsp__top(%rip), %rax
	movsd	(%rdx,%rax), %xmm0
	mulsd	-160(%rbp), %xmm0
	addsd	%xmm1, %xmm0
	movsd	-88(%rbp), %xmm1
	addsd	%xmm1, %xmm0
	movsd	%xmm0, -88(%rbp)
	.loc 7 1664 0 discriminator 14
	movsd	-112(%rbp), %xmm0
	movsd	%xmm0, -192(%rbp)
	.loc 7 1665 0 discriminator 14
	movsd	-88(%rbp), %xmm0
	movsd	%xmm0, -160(%rbp)
.L783:
.LBE274:
.LBE273:
.LBE257:
.LBE240:
.LBE239:
.LBE232:
.LBB281:
	.loc 7 1669 0
	movsd	-192(%rbp), %xmm0
	movsd	-160(%rbp), %xmm1
	addsd	%xmm1, %xmm0
	movsd	%xmm0, -16(%rbp)
	movsd	-192(%rbp), %xmm1
	movsd	-16(%rbp), %xmm0
	subsd	%xmm1, %xmm0
	movsd	-160(%rbp), %xmm1
	subsd	%xmm0, %xmm1
	movapd	%xmm1, %xmm0
	movsd	%xmm0, -160(%rbp)
	movsd	-16(%rbp), %xmm0
	movsd	%xmm0, -192(%rbp)
.LBE281:
	.loc 7 1670 0
	movsd	-192(%rbp), %xmm0
	movq	-312(%rbp), %rax
	movsd	%xmm0, (%rax)
	.loc 7 1671 0
	movq	-320(%rbp), %rax
	movsd	-160(%rbp), %xmm0
	movsd	%xmm0, (%rax)
	.loc 7 1672 0
	nop
	movq	-8(%rbp), %rax
	xorq	%fs:40, %rax
	je	.L832
	call	__stack_chk_fail@PLT
.L832:
	leave
	.cfi_def_cfa 7, 8
	ret
	.cfi_endproc
.LFE91:
	.size	_ZL23stbsp__raise_to_power10PdS_di, .-_ZL23stbsp__raise_to_power10PdS_di
	.section	.rodata
.LC20:
	.string	"NaN"
.LC21:
	.string	"Inf"
	.text
	.type	_ZL18stbsp__real_to_strPPKcPjPcPidj, @function
_ZL18stbsp__real_to_strPPKcPjPcPidj:
.LFB92:
	.loc 7 1679 0
	.cfi_startproc
	pushq	%rbp
	.cfi_def_cfa_offset 16
	.cfi_offset 6, -16
	movq	%rsp, %rbp
	.cfi_def_cfa_register 6
	subq	$192, %rsp
	movq	%rdi, -136(%rbp)
	movq	%rsi, -144(%rbp)
	movq	%rdx, -152(%rbp)
	movq	%rcx, -160(%rbp)
	movsd	%xmm0, -168(%rbp)
	movl	%r8d, -172(%rbp)
	.loc 7 1679 0
	movq	%fs:40, %rax
	movq	%rax, -8(%rbp)
	xorl	%eax, %eax
	.loc 7 1681 0
	movq	$0, -88(%rbp)
	.loc 7 1684 0
	movsd	-168(%rbp), %xmm0
	movsd	%xmm0, -96(%rbp)
.LBB282:
	.loc 7 1685 0
	movl	$0, -116(%rbp)
.L835:
	.loc 7 1685 0 is_stmt 0 discriminator 3
	cmpl	$7, -116(%rbp)
	jg	.L834
	.loc 7 1685 0 discriminator 2
	movl	-116(%rbp), %eax
	cltq
	leaq	-96(%rbp), %rdx
	addq	%rdx, %rax
	movl	-116(%rbp), %edx
	movslq	%edx, %rdx
	leaq	-88(%rbp), %rcx
	addq	%rcx, %rdx
	movzbl	(%rax), %eax
	movb	%al, (%rdx)
	addl	$1, -116(%rbp)
	jmp	.L835
.L834:
.LBE282:
	.loc 7 1686 0 is_stmt 1
	movq	-88(%rbp), %rax
	sarq	$52, %rax
	andl	$2047, %eax
	movl	%eax, -124(%rbp)
	.loc 7 1687 0
	movq	-88(%rbp), %rax
	shrq	$63, %rax
	movl	%eax, -100(%rbp)
	.loc 7 1688 0
	cmpl	$0, -100(%rbp)
	je	.L836
	.loc 7 1689 0
	movsd	-96(%rbp), %xmm1
	movq	.LC16(%rip), %xmm0
	xorpd	%xmm1, %xmm0
	movsd	%xmm0, -96(%rbp)
.L836:
	.loc 7 1691 0
	cmpl	$2047, -124(%rbp)
	jne	.L837
	.loc 7 1693 0
	movq	-88(%rbp), %rax
	movq	%rax, %rdx
	movabsq	$4503599627370495, %rax
	andq	%rdx, %rax
	testq	%rax, %rax
	je	.L838
	.loc 7 1693 0 is_stmt 0 discriminator 1
	leaq	.LC20(%rip), %rax
	jmp	.L839
.L838:
	.loc 7 1693 0 discriminator 2
	leaq	.LC21(%rip), %rax
.L839:
	.loc 7 1693 0 discriminator 4
	movq	-136(%rbp), %rdx
	movq	%rax, (%rdx)
	.loc 7 1694 0 is_stmt 1 discriminator 4
	movq	-160(%rbp), %rax
	movl	$28672, (%rax)
	.loc 7 1695 0 discriminator 4
	movq	-144(%rbp), %rax
	movl	$3, (%rax)
	.loc 7 1696 0 discriminator 4
	movl	-100(%rbp), %eax
	jmp	.L875
.L837:
.LBB283:
	.loc 7 1699 0
	cmpl	$0, -124(%rbp)
	jne	.L841
.LBB284:
	.loc 7 1701 0
	movq	-88(%rbp), %rax
	addq	%rax, %rax
	testq	%rax, %rax
	jne	.L842
	.loc 7 1703 0
	movq	-160(%rbp), %rax
	movl	$1, (%rax)
	.loc 7 1704 0
	movq	-136(%rbp), %rax
	movq	-152(%rbp), %rdx
	movq	%rdx, (%rax)
	.loc 7 1705 0
	movq	-152(%rbp), %rax
	movb	$48, (%rax)
	.loc 7 1706 0
	movq	-144(%rbp), %rax
	movl	$1, (%rax)
	.loc 7 1707 0
	movl	-100(%rbp), %eax
	jmp	.L875
.L842:
.LBB285:
	.loc 7 1711 0
	movabsq	$2251799813685248, %rax
	movq	%rax, -64(%rbp)
.L844:
	.loc 7 1712 0
	movq	-88(%rbp), %rax
	andq	-64(%rbp), %rax
	testq	%rax, %rax
	jne	.L841
	.loc 7 1713 0
	subl	$1, -124(%rbp)
	.loc 7 1714 0
	sarq	-64(%rbp)
	.loc 7 1712 0
	jmp	.L844
.L841:
.LBE285:
.LBE284:
.LBE283:
.LBB286:
	.loc 7 1724 0
	movl	-124(%rbp), %eax
	subl	$1023, %eax
	movl	%eax, -120(%rbp)
	.loc 7 1725 0
	cmpl	$0, -120(%rbp)
	jns	.L845
	.loc 7 1725 0 is_stmt 0 discriminator 1
	movl	-120(%rbp), %eax
	imull	$617, %eax, %eax
	leal	2047(%rax), %edx
	testl	%eax, %eax
	cmovs	%edx, %eax
	sarl	$11, %eax
	jmp	.L846
.L845:
	.loc 7 1725 0 discriminator 2
	movl	-120(%rbp), %eax
	imull	$1233, %eax, %eax
	leal	4095(%rax), %edx
	testl	%eax, %eax
	cmovs	%edx, %eax
	sarl	$12, %eax
	addl	$1, %eax
.L846:
	.loc 7 1725 0 discriminator 4
	movl	%eax, -120(%rbp)
	.loc 7 1728 0 is_stmt 1 discriminator 4
	movl	$18, %eax
	subl	-120(%rbp), %eax
	movl	%eax, %edx
	movq	-96(%rbp), %rsi
	leaq	-72(%rbp), %rcx
	leaq	-80(%rbp), %rax
	movq	%rsi, -184(%rbp)
	movsd	-184(%rbp), %xmm0
	movq	%rcx, %rsi
	movq	%rax, %rdi
	call	_ZL23stbsp__raise_to_power10PdS_di
.LBB287:
	.loc 7 1731 0 discriminator 4
	pxor	%xmm0, %xmm0
	movsd	%xmm0, -56(%rbp)
	movsd	-80(%rbp), %xmm0
	cvttsd2siq	%xmm0, %rax
	movq	%rax, -88(%rbp)
	movq	-88(%rbp), %rax
	cvtsi2sdq	%rax, %xmm0
	movsd	%xmm0, -48(%rbp)
	movsd	-80(%rbp), %xmm0
	subsd	-48(%rbp), %xmm0
	movsd	%xmm0, -56(%rbp)
	movsd	-80(%rbp), %xmm1
	movsd	-56(%rbp), %xmm0
	subsd	%xmm1, %xmm0
	movsd	%xmm0, -40(%rbp)
	movsd	-80(%rbp), %xmm1
	movsd	-56(%rbp), %xmm0
	subsd	-40(%rbp), %xmm0
	subsd	%xmm0, %xmm1
	movapd	%xmm1, %xmm0
	movsd	-48(%rbp), %xmm1
	addsd	-40(%rbp), %xmm1
	subsd	%xmm1, %xmm0
	movsd	%xmm0, -32(%rbp)
	movsd	-56(%rbp), %xmm0
	addsd	-32(%rbp), %xmm0
	movsd	-72(%rbp), %xmm1
	addsd	%xmm1, %xmm0
	cvttsd2siq	%xmm0, %rdx
	movq	-88(%rbp), %rax
	addq	%rdx, %rax
	movq	%rax, -88(%rbp)
.LBE287:
	.loc 7 1734 0 discriminator 4
	movq	-88(%rbp), %rax
	movq	%rax, %rdx
	movabsq	$999999999999999999, %rax
	cmpq	%rax, %rdx
	jbe	.L847
	.loc 7 1735 0
	addl	$1, -120(%rbp)
.L847:
.LBE286:
	.loc 7 1739 0
	movl	-172(%rbp), %eax
	testl	%eax, %eax
	jns	.L848
	.loc 7 1739 0 is_stmt 0 discriminator 1
	movl	-172(%rbp), %eax
	andl	$134217727, %eax
	addl	$1, %eax
	jmp	.L849
.L848:
	.loc 7 1739 0 discriminator 2
	movl	-120(%rbp), %edx
	movl	-172(%rbp), %eax
	addl	%edx, %eax
.L849:
	.loc 7 1739 0 discriminator 4
	movl	%eax, -172(%rbp)
.LBB288:
	.loc 7 1740 0 is_stmt 1 discriminator 4
	cmpl	$23, -172(%rbp)
	ja	.L850
.LBB289:
	.loc 7 1741 0
	movl	$1, -112(%rbp)
	.loc 7 1742 0
	movl	$1000000000, %edx
	movq	-88(%rbp), %rax
	cmpq	%rax, %rdx
	ja	.L855
	.loc 7 1743 0
	movl	$10, -112(%rbp)
.L855:
	.loc 7 1744 0
	movl	-112(%rbp), %eax
	leaq	0(,%rax,8), %rdx
	leaq	_ZL13stbsp__powten(%rip), %rax
	movq	(%rdx,%rax), %rax
	movq	-88(%rbp), %rdx
	cmpq	%rdx, %rax
	ja	.L852
	.loc 7 1745 0
	addl	$1, -112(%rbp)
	.loc 7 1746 0
	cmpl	$20, -112(%rbp)
	je	.L878
	.loc 7 1744 0
	jmp	.L855
.L852:
.LBB290:
	.loc 7 1749 0
	movl	-172(%rbp), %eax
	cmpl	-112(%rbp), %eax
	jnb	.L879
.LBB291:
	.loc 7 1752 0
	movl	-112(%rbp), %eax
	subl	-172(%rbp), %eax
	movl	%eax, -72(%rbp)
	.loc 7 1753 0
	movl	-72(%rbp), %eax
	cmpl	$23, %eax
	ja	.L880
	.loc 7 1755 0
	movl	-72(%rbp), %eax
	cltq
	leaq	0(,%rax,8), %rdx
	leaq	_ZL13stbsp__powten(%rip), %rax
	movq	(%rdx,%rax), %rax
	movq	%rax, -24(%rbp)
	.loc 7 1756 0
	movq	-24(%rbp), %rax
	shrq	%rax
	movq	%rax, %rdx
	movq	-88(%rbp), %rax
	addq	%rdx, %rax
	movq	%rax, -88(%rbp)
	.loc 7 1757 0
	movl	-112(%rbp), %eax
	leaq	0(,%rax,8), %rdx
	leaq	_ZL13stbsp__powten(%rip), %rax
	movq	(%rdx,%rax), %rax
	movq	-88(%rbp), %rdx
	cmpq	%rdx, %rax
	ja	.L857
	.loc 7 1758 0
	addl	$1, -120(%rbp)
.L857:
	.loc 7 1759 0
	movq	-88(%rbp), %rax
	movl	$0, %edx
	divq	-24(%rbp)
	movq	%rax, -88(%rbp)
.LBE291:
	jmp	.L850
.L854:
.L878:
.LBE290:
	.loc 7 1747 0
	nop
	jmp	.L850
.L879:
	.loc 7 1761 0
	nop
	jmp	.L850
.L880:
.LBB293:
.LBB292:
	.loc 7 1754 0
	nop
.L850:
.LBE292:
.LBE293:
.LBE289:
.LBE288:
.LBB294:
	.loc 7 1765 0
	movq	-88(%rbp), %rax
	testq	%rax, %rax
	je	.L858
.L863:
.LBB295:
	.loc 7 1768 0
	movq	-88(%rbp), %rdx
	movl	$4294967295, %eax
	cmpq	%rax, %rdx
	jle	.L881
	.loc 7 1770 0
	movq	-88(%rbp), %rcx
	movabsq	$2361183241434822607, %rdx
	movq	%rcx, %rax
	imulq	%rdx
	sarq	$7, %rdx
	movq	%rcx, %rax
	sarq	$63, %rax
	subq	%rax, %rdx
	movq	%rdx, %rax
	imulq	$1000, %rax, %rax
	subq	%rax, %rcx
	movq	%rcx, %rax
	testq	%rax, %rax
	jne	.L882
	.loc 7 1772 0
	movq	-88(%rbp), %rcx
	movabsq	$2361183241434822607, %rdx
	movq	%rcx, %rax
	imulq	%rdx
	sarq	$7, %rdx
	movq	%rcx, %rax
	sarq	$63, %rax
	subq	%rax, %rdx
	movq	%rdx, %rax
	movq	%rax, -88(%rbp)
	.loc 7 1768 0
	jmp	.L863
.L881:
	.loc 7 1769 0
	nop
	.loc 7 1774 0
	movq	-88(%rbp), %rax
	movl	%eax, -108(%rbp)
.L865:
	.loc 7 1775 0
	movl	-108(%rbp), %ecx
	movl	$274877907, %edx
	movl	%ecx, %eax
	mull	%edx
	movl	%edx, %eax
	shrl	$6, %eax
	imull	$1000, %eax, %eax
	subl	%eax, %ecx
	movl	%ecx, %eax
	testl	%eax, %eax
	jne	.L864
	.loc 7 1776 0
	movl	-108(%rbp), %eax
	movl	$274877907, %edx
	mull	%edx
	movl	%edx, %eax
	shrl	$6, %eax
	movl	%eax, -108(%rbp)
	.loc 7 1775 0
	jmp	.L865
.L864:
	.loc 7 1777 0
	movl	-108(%rbp), %eax
	movq	%rax, -88(%rbp)
	jmp	.L858
.L862:
.L882:
	.loc 7 1771 0
	nop
.L858:
.LBE295:
.LBE294:
	.loc 7 1782 0
	addq	$64, -152(%rbp)
	.loc 7 1783 0
	movl	$0, -72(%rbp)
.L874:
.LBB296:
.LBB297:
	.loc 7 1786 0
	movq	-152(%rbp), %rax
	subq	$8, %rax
	movq	%rax, -16(%rbp)
	.loc 7 1788 0
	movq	-88(%rbp), %rax
	cmpq	$99999999, %rax
	jle	.L866
	.loc 7 1789 0
	movq	-88(%rbp), %rcx
	movabsq	$6189700196426901375, %rdx
	movq	%rcx, %rax
	imulq	%rdx
	sarq	$25, %rdx
	movq	%rcx, %rax
	sarq	$63, %rax
	subq	%rax, %rdx
	movq	%rdx, %rax
	imulq	$100000000, %rax, %rax
	subq	%rax, %rcx
	movq	%rcx, %rax
	movl	%eax, -104(%rbp)
	.loc 7 1790 0
	movq	-88(%rbp), %rcx
	movabsq	$6189700196426901375, %rdx
	movq	%rcx, %rax
	imulq	%rdx
	sarq	$25, %rdx
	movq	%rcx, %rax
	sarq	$63, %rax
	subq	%rax, %rdx
	movq	%rdx, %rax
	movq	%rax, -88(%rbp)
	jmp	.L869
.L866:
	.loc 7 1792 0
	movq	-88(%rbp), %rax
	movl	%eax, -104(%rbp)
	.loc 7 1793 0
	movq	$0, -88(%rbp)
.L869:
	.loc 7 1795 0
	cmpl	$0, -104(%rbp)
	je	.L868
	.loc 7 1796 0
	subq	$2, -152(%rbp)
	.loc 7 1797 0
	movl	-104(%rbp), %ecx
	movl	$1374389535, %edx
	movl	%ecx, %eax
	mull	%edx
	movl	%edx, %eax
	shrl	$5, %eax
	imull	$100, %eax, %eax
	subl	%eax, %ecx
	movl	%ecx, %eax
	addl	%eax, %eax
	movl	%eax, %edx
	leaq	_ZL16stbsp__digitpair(%rip), %rax
	addq	%rdx, %rax
	addq	$2, %rax
	movzwl	(%rax), %edx
	movq	-152(%rbp), %rax
	movw	%dx, (%rax)
	.loc 7 1798 0
	movl	-104(%rbp), %eax
	movl	$1374389535, %edx
	mull	%edx
	movl	%edx, %eax
	shrl	$5, %eax
	movl	%eax, -104(%rbp)
	.loc 7 1799 0
	movl	-72(%rbp), %eax
	addl	$2, %eax
	movl	%eax, -72(%rbp)
	.loc 7 1795 0
	jmp	.L869
.L868:
	.loc 7 1801 0
	movq	-88(%rbp), %rax
	testq	%rax, %rax
	jne	.L870
	.loc 7 1802 0
	movl	-72(%rbp), %eax
	testl	%eax, %eax
	je	.L883
	.loc 7 1802 0 is_stmt 0 discriminator 1
	movq	-152(%rbp), %rax
	movzbl	(%rax), %eax
	cmpb	$48, %al
	jne	.L883
	.loc 7 1803 0 is_stmt 1
	addq	$1, -152(%rbp)
	.loc 7 1804 0
	movl	-72(%rbp), %eax
	subl	$1, %eax
	movl	%eax, -72(%rbp)
	.loc 7 1806 0
	jmp	.L883
.L870:
	.loc 7 1808 0
	movq	-152(%rbp), %rax
	cmpq	-16(%rbp), %rax
	je	.L874
	.loc 7 1809 0
	subq	$1, -152(%rbp)
	movq	-152(%rbp), %rax
	movb	$48, (%rax)
	.loc 7 1810 0
	movl	-72(%rbp), %eax
	addl	$1, %eax
	movl	%eax, -72(%rbp)
	.loc 7 1808 0
	jmp	.L870
.L883:
	.loc 7 1806 0
	nop
.LBE297:
.LBE296:
	.loc 7 1814 0
	movq	-160(%rbp), %rax
	movl	-120(%rbp), %edx
	movl	%edx, (%rax)
	.loc 7 1815 0
	movq	-136(%rbp), %rax
	movq	-152(%rbp), %rdx
	movq	%rdx, (%rax)
	.loc 7 1816 0
	movl	-72(%rbp), %eax
	movl	%eax, %edx
	movq	-144(%rbp), %rax
	movl	%edx, (%rax)
	.loc 7 1817 0
	movl	-100(%rbp), %eax
.L875:
	.loc 7 1818 0 discriminator 1
	movq	-8(%rbp), %rdi
	xorq	%fs:40, %rdi
	je	.L876
	.loc 7 1818 0 is_stmt 0
	call	__stack_chk_fail@PLT
.L876:
	leave
	.cfi_def_cfa 7, 8
	ret
	.cfi_endproc
.LFE92:
	.size	_ZL18stbsp__real_to_strPPKcPjPcPidj, .-_ZL18stbsp__real_to_strPPKcPjPcPidj
	.globl	GeneratedTag
	.section	.rodata
.LC22:
	.string	"/**   GENERATED    **/"
	.section	.data.rel.local,"aw",@progbits
	.align 8
	.type	GeneratedTag, @object
	.size	GeneratedTag, 8
GeneratedTag:
	.quad	.LC22
	.section	.text._Z13WriteToOutputP11output_dataP12memory_arenaPKcz,"axG",@progbits,_Z13WriteToOutputP11output_dataP12memory_arenaPKcz,comdat
	.weak	_Z13WriteToOutputP11output_dataP12memory_arenaPKcz
	.type	_Z13WriteToOutputP11output_dataP12memory_arenaPKcz, @function
_Z13WriteToOutputP11output_dataP12memory_arenaPKcz:
.LFB93:
	.file 8 "/home/amos/prog/c/amos_libraries/preprocessor/ab_preprocessor2.cpp"
	.loc 8 28 0 is_stmt 1
	.cfi_startproc
	pushq	%rbp
	.cfi_def_cfa_offset 16
	.cfi_offset 6, -16
	movq	%rsp, %rbp
	.cfi_def_cfa_register 6
	subq	$288, %rsp
	movq	%rdi, -264(%rbp)
	movq	%rsi, -272(%rbp)
	movq	%rdx, -280(%rbp)
	movq	%rcx, -152(%rbp)
	movq	%r8, -144(%rbp)
	movq	%r9, -136(%rbp)
	testb	%al, %al
	je	.L885
	movaps	%xmm0, -128(%rbp)
	movaps	%xmm1, -112(%rbp)
	movaps	%xmm2, -96(%rbp)
	movaps	%xmm3, -80(%rbp)
	movaps	%xmm4, -64(%rbp)
	movaps	%xmm5, -48(%rbp)
	movaps	%xmm6, -32(%rbp)
	movaps	%xmm7, -16(%rbp)
.L885:
	.loc 8 28 0
	movq	%fs:40, %rax
	movq	%rax, -184(%rbp)
	xorl	%eax, %eax
	.loc 8 30 0
	movl	$24, -208(%rbp)
	movl	$48, -204(%rbp)
	leaq	16(%rbp), %rax
	movq	%rax, -200(%rbp)
	leaq	-176(%rbp), %rax
	movq	%rax, -192(%rbp)
	.loc 8 32 0
	movq	-264(%rbp), %rax
	movq	%rax, -248(%rbp)
.L887:
	.loc 8 33 0
	movq	-248(%rbp), %rax
	movq	204808(%rax), %rax
	testq	%rax, %rax
	je	.L886
	.loc 8 35 0
	movq	-248(%rbp), %rax
	movq	204808(%rax), %rax
	movq	%rax, -248(%rbp)
	.loc 8 33 0
	jmp	.L887
.L886:
	.loc 8 38 0
	movq	$204800, -240(%rbp)
	.loc 8 39 0
	movq	-248(%rbp), %rax
	movq	204800(%rax), %rax
	movq	%rax, -232(%rbp)
	.loc 8 40 0
	movq	-248(%rbp), %rax
	movq	204800(%rax), %rax
	movl	$204800, %edx
	subq	%rax, %rdx
	movq	%rdx, %rax
	movq	%rax, -224(%rbp)
	.loc 8 42 0
	movq	-224(%rbp), %rax
	movl	%eax, %esi
	movq	-248(%rbp), %rdx
	movq	-232(%rbp), %rax
	leaq	(%rdx,%rax), %rdi
	leaq	-208(%rbp), %rdx
	movq	-280(%rbp), %rax
	movq	%rdx, %rcx
	movq	%rax, %rdx
	call	stbsp_vsnprintf
	cltq
	movq	%rax, -216(%rbp)
.LBB298:
	.loc 8 44 0
	movq	-216(%rbp), %rax
	cmpq	-224(%rbp), %rax
	jnb	.L888
	.loc 8 46 0
	movq	-248(%rbp), %rax
	movq	204800(%rax), %rdx
	movq	-216(%rbp), %rax
	addq	%rax, %rdx
	movq	-248(%rbp), %rax
	movq	%rdx, 204800(%rax)
.LBE298:
	.loc 8 61 0
	jmp	.L891
.L888:
.LBB300:
.LBB299:
	.loc 8 53 0
	movq	-248(%rbp), %rdx
	movq	-232(%rbp), %rax
	addq	%rdx, %rax
	movb	$0, (%rax)
	.loc 8 54 0
	movq	-272(%rbp), %rax
	movl	$1, %edx
	movl	$204816, %esi
	movq	%rax, %rdi
	call	_Z13abm_PushSize_P12memory_arenama
	movq	%rax, %rdx
	movq	-248(%rbp), %rax
	movq	%rdx, 204808(%rax)
	.loc 8 55 0
	movq	-248(%rbp), %rax
	movq	204808(%rax), %rax
	movq	%rax, -248(%rbp)
	.loc 8 56 0
	movq	-224(%rbp), %rax
	movl	%eax, %esi
	movq	-248(%rbp), %rdx
	movq	-232(%rbp), %rax
	leaq	(%rdx,%rax), %rdi
	leaq	-208(%rbp), %rdx
	movq	-280(%rbp), %rax
	movq	%rdx, %rcx
	movq	%rax, %rdx
	call	stbsp_vsnprintf
	movl	%eax, -252(%rbp)
	.loc 8 57 0
	movq	-248(%rbp), %rax
	movq	204800(%rax), %rdx
	movl	-252(%rbp), %eax
	cltq
	addq	%rax, %rdx
	movq	-248(%rbp), %rax
	movq	%rdx, 204800(%rax)
.L891:
.LBE299:
.LBE300:
	.loc 8 61 0
	nop
	movq	-184(%rbp), %rax
	xorq	%fs:40, %rax
	je	.L890
	call	__stack_chk_fail@PLT
.L890:
	leave
	.cfi_def_cfa 7, 8
	ret
	.cfi_endproc
.LFE93:
	.size	_Z13WriteToOutputP11output_dataP12memory_arenaPKcz, .-_Z13WriteToOutputP11output_dataP12memory_arenaPKcz
	.section	.text._Z12CopyToOutputP11output_dataP12memory_arenaPKc,"axG",@progbits,_Z12CopyToOutputP11output_dataP12memory_arenaPKc,comdat
	.weak	_Z12CopyToOutputP11output_dataP12memory_arenaPKc
	.type	_Z12CopyToOutputP11output_dataP12memory_arenaPKc, @function
_Z12CopyToOutputP11output_dataP12memory_arenaPKc:
.LFB94:
	.loc 8 65 0
	.cfi_startproc
	pushq	%rbp
	.cfi_def_cfa_offset 16
	.cfi_offset 6, -16
	movq	%rsp, %rbp
	.cfi_def_cfa_register 6
	subq	$96, %rsp
	movq	%rdi, -72(%rbp)
	movq	%rsi, -80(%rbp)
	movq	%rdx, -88(%rbp)
	.loc 8 65 0
	movq	%fs:40, %rax
	movq	%rax, -8(%rbp)
	xorl	%eax, %eax
	.loc 8 66 0
	movq	-72(%rbp), %rax
	movq	%rax, -40(%rbp)
	.loc 8 67 0
	movq	$204800, -32(%rbp)
	.loc 8 68 0
	movq	-88(%rbp), %rax
	movq	%rax, %rdi
	call	strlen@PLT
	movl	%eax, -52(%rbp)
	.loc 8 69 0
	movl	$0, -48(%rbp)
.L897:
	.loc 8 70 0
	movl	-52(%rbp), %eax
	cmpl	%eax, -48(%rbp)
	jge	.L899
.LBB301:
	.loc 8 72 0
	movq	-40(%rbp), %rax
	movq	204800(%rax), %rax
	movq	%rax, -24(%rbp)
	.loc 8 73 0
	movq	-40(%rbp), %rax
	movq	204800(%rax), %rax
	movl	$204800, %edx
	subq	%rax, %rdx
	movq	%rdx, %rax
	movq	%rax, -16(%rbp)
.LBB302:
	.loc 8 74 0
	cmpq	$1, -16(%rbp)
	jbe	.L894
.LBB303:
	.loc 8 76 0
	movq	-16(%rbp), %rax
	movl	%eax, %edx
	movl	-52(%rbp), %eax
	cmpl	%eax, %edx
	cmovle	%edx, %eax
	movl	%eax, -44(%rbp)
	.loc 8 77 0
	movl	-44(%rbp), %edx
	movq	-40(%rbp), %rcx
	movq	-24(%rbp), %rax
	addq	%rax, %rcx
	movq	-88(%rbp), %rax
	movq	%rax, %rsi
	movq	%rcx, %rdi
	call	_Z14abs_StringCopyPcPKcm
	.loc 8 78 0
	movq	-40(%rbp), %rax
	movq	204800(%rax), %rdx
	movl	-44(%rbp), %eax
	addq	%rax, %rdx
	movq	-40(%rbp), %rax
	movq	%rdx, 204800(%rax)
	.loc 8 79 0
	movl	-48(%rbp), %edx
	movl	-44(%rbp), %eax
	addl	%edx, %eax
	movl	%eax, -48(%rbp)
.LBE303:
	jmp	.L897
.L894:
	.loc 8 83 0
	movq	-40(%rbp), %rax
	movq	204808(%rax), %rax
	testq	%rax, %rax
	jne	.L896
	.loc 8 85 0
	movq	-80(%rbp), %rax
	movl	$1, %edx
	movl	$204816, %esi
	movq	%rax, %rdi
	call	_Z13abm_PushSize_P12memory_arenama
	movq	%rax, %rdx
	movq	-40(%rbp), %rax
	movq	%rdx, 204808(%rax)
.L896:
	.loc 8 87 0
	movq	-40(%rbp), %rax
	movq	204808(%rax), %rax
	movq	%rax, -40(%rbp)
.LBE302:
.LBE301:
	.loc 8 70 0
	jmp	.L897
.L899:
	.loc 8 92 0
	nop
	movq	-8(%rbp), %rax
	xorq	%fs:40, %rax
	je	.L898
	call	__stack_chk_fail@PLT
.L898:
	leave
	.cfi_def_cfa 7, 8
	ret
	.cfi_endproc
.LFE94:
	.size	_Z12CopyToOutputP11output_dataP12memory_arenaPKc, .-_Z12CopyToOutputP11output_dataP12memory_arenaPKc
	.section	.text._Z12CopyToOutputP11output_dataP12memory_arenaS0_,"axG",@progbits,_Z12CopyToOutputP11output_dataP12memory_arenaS0_,comdat
	.weak	_Z12CopyToOutputP11output_dataP12memory_arenaS0_
	.type	_Z12CopyToOutputP11output_dataP12memory_arenaS0_, @function
_Z12CopyToOutputP11output_dataP12memory_arenaS0_:
.LFB95:
	.loc 8 96 0
	.cfi_startproc
	pushq	%rbp
	.cfi_def_cfa_offset 16
	.cfi_offset 6, -16
	movq	%rsp, %rbp
	.cfi_def_cfa_register 6
	subq	$48, %rsp
	movq	%rdi, -24(%rbp)
	movq	%rsi, -32(%rbp)
	movq	%rdx, -40(%rbp)
	.loc 8 97 0
	movq	-24(%rbp), %rax
	movq	%rax, -8(%rbp)
.L902:
	.loc 8 98 0
	cmpq	$0, -8(%rbp)
	je	.L903
	.loc 8 100 0
	movq	-40(%rbp), %rdx
	movq	-32(%rbp), %rcx
	movq	-8(%rbp), %rax
	movq	%rcx, %rsi
	movq	%rax, %rdi
	call	_Z12CopyToOutputP11output_dataP12memory_arenaPKc
	.loc 8 101 0
	movq	-8(%rbp), %rax
	movq	204808(%rax), %rax
	movq	%rax, -8(%rbp)
	.loc 8 98 0
	jmp	.L902
.L903:
	.loc 8 103 0
	nop
	leave
	.cfi_def_cfa 7, 8
	ret
	.cfi_endproc
.LFE95:
	.size	_Z12CopyToOutputP11output_dataP12memory_arenaS0_, .-_Z12CopyToOutputP11output_dataP12memory_arenaS0_
	.section	.rodata
	.align 8
.LC23:
	.string	"/***** Queue: %.*s ****/\n// Creating a circular queue of %u elements.\n"
	.align 8
.LC24:
	.string	"struct %.*s_queue\n{\n    %.*s Items[%u];\n    s32 Front;\n    s32 Rear;\n};\n\n"
	.align 8
.LC25:
	.string	"inline void InitializeQueue(%.*s_queue *Queue);\ninline b8 isQueueEmpty(%.*s_queue *Queue);\ninline b8 isQueueFull(%.*s_queue *Queue);\nb8 EnqueueCommand(%.*s_queue *Queue, %.*s Cmd);\n%.*s DequeueCommand(%.*s_queue *Queue);\n"
.LC26:
	.string	"/***********/\n\n"
.LC27:
	.string	"/****** Queue: %.*s ****/\n"
	.align 8
.LC28:
	.string	"inline void\nInitializeQueue(%.*s_queue *Queue)\n{\n  Queue->Front = Queue->Rear = -1;\n}\n\n"
	.align 8
.LC29:
	.string	"inline b8\nisQueueEmpty(%.*s_queue *Queue)\n{\n  b8 Result = (Queue->Front == -1);\n  return Result;\n}\n\n"
	.align 8
.LC30:
	.string	"inline b8 \nisQueueFull(%.*s_queue *Queue)\n{\n  b8 Result = (Queue->Front == Queue->Rear + 1) ||\n  (Queue->Front == 0 && Queue->Rear == (%u-1));\n\n  return Result;\n}\n\n"
	.align 8
.LC31:
	.ascii	"b8\nEnqueue(%.*s_queue *Queue"
	.string	", %.*s Cmd)\n{\n  b8 Result = false;\n  if(!isQueueFull(Queue))\n  {\n    if(Queue->Front == -1)\n    {\n      Queue->Front = 0;\n    }\n    Queue->Rear = (Queue->Rear + 1) %% %u;\n    Queue->Items[Queue->Rear] = Cmd;\n\n    Result = true;\n  }\n  return Result;    \n}\n\n"
	.align 8
.LC32:
	.ascii	"%.*s\nD"
	.string	"equeue(%.*s_queue *Queue)\n{\n%.*s Result = (%.*s)0;\nif(!isQueueEmpty(Queue))\n{\nResult = Queue->Items[Queue->Front];\nif(Queue->Front == Queue->Rear)\n{\nQueue->Front = Queue->Rear = -1;\n}\nelse \n{\nQueue->Front = (Queue->Front + 1) %% %u;\n}\n}\n\nreturn Result;\n}\n\n"
	.text
	.globl	_Z19WriteQueueFunctions13abs_stringptrjP12memory_arenaP11output_dataS3_
	.type	_Z19WriteQueueFunctions13abs_stringptrjP12memory_arenaP11output_dataS3_, @function
_Z19WriteQueueFunctions13abs_stringptrjP12memory_arenaP11output_dataS3_:
.LFB96:
	.file 9 "/home/amos/prog/c/amos_libraries/preprocessor/abp_queue.h"
	.loc 9 20 0
	.cfi_startproc
	pushq	%rbp
	.cfi_def_cfa_offset 16
	.cfi_offset 6, -16
	movq	%rsp, %rbp
	.cfi_def_cfa_register 6
	pushq	%r15
	pushq	%r14
	pushq	%r13
	pushq	%r12
	pushq	%rbx
	subq	$72, %rsp
	.cfi_offset 15, -24
	.cfi_offset 14, -32
	.cfi_offset 13, -40
	.cfi_offset 12, -48
	.cfi_offset 3, -56
	movq	%rdi, %rax
	movq	%rsi, %r10
	movq	%rax, %rsi
	movq	%rdx, %rdi
	movq	%r10, %rdi
	movq	%rsi, -64(%rbp)
	movq	%rdi, -56(%rbp)
	movl	%edx, -68(%rbp)
	movq	%rcx, -80(%rbp)
	movq	%r8, -88(%rbp)
	movq	%r9, -96(%rbp)
	.loc 9 21 0
	movq	-64(%rbp), %rcx
	movl	-56(%rbp), %edx
	movl	-68(%rbp), %edi
	movq	-80(%rbp), %rsi
	movq	-88(%rbp), %rax
	movl	%edi, %r9d
	movq	%rcx, %r8
	movl	%edx, %ecx
	leaq	.LC23(%rip), %rdx
	movq	%rax, %rdi
	movl	$0, %eax
	call	_Z13WriteToOutputP11output_dataP12memory_arenaPKcz
	.loc 9 26 0
	movq	-64(%rbp), %rcx
	movl	-56(%rbp), %r9d
	movq	-64(%rbp), %r8
	movl	-56(%rbp), %edx
	movq	-80(%rbp), %rsi
	movq	-88(%rbp), %rax
	movl	-68(%rbp), %edi
	pushq	%rdi
	pushq	%rcx
	movl	%edx, %ecx
	leaq	.LC24(%rip), %rdx
	movq	%rax, %rdi
	movl	$0, %eax
	call	_Z13WriteToOutputP11output_dataP12memory_arenaPKcz
	addq	$16, %rsp
	.loc 9 39 0
	movq	-64(%rbp), %rdx
	movl	-56(%rbp), %r15d
	movq	-64(%rbp), %r14
	movl	-56(%rbp), %r13d
	movq	-64(%rbp), %r12
	movl	-56(%rbp), %ebx
	movq	-64(%rbp), %r11
	movl	-56(%rbp), %r10d
	movq	-64(%rbp), %r9
	movl	-56(%rbp), %r8d
	movq	-64(%rbp), %rdi
	movl	-56(%rbp), %eax
	movl	%eax, -72(%rbp)
	movq	-64(%rbp), %rcx
	movq	%rcx, -104(%rbp)
	movl	-56(%rbp), %ecx
	movq	-80(%rbp), %rsi
	movq	-88(%rbp), %rax
	subq	$8, %rsp
	pushq	%rdx
	pushq	%r15
	pushq	%r14
	pushq	%r13
	pushq	%r12
	pushq	%rbx
	pushq	%r11
	pushq	%r10
	pushq	%r9
	pushq	%r8
	pushq	%rdi
	movl	-72(%rbp), %r9d
	movq	-104(%rbp), %r8
	leaq	.LC25(%rip), %rdx
	movq	%rax, %rdi
	movl	$0, %eax
	call	_Z13WriteToOutputP11output_dataP12memory_arenaPKcz
	addq	$96, %rsp
	.loc 9 57 0
	movq	-80(%rbp), %rcx
	movq	-88(%rbp), %rax
	leaq	.LC26(%rip), %rdx
	movq	%rcx, %rsi
	movq	%rax, %rdi
	movl	$0, %eax
	call	_Z13WriteToOutputP11output_dataP12memory_arenaPKcz
	.loc 9 60 0
	movq	-64(%rbp), %rcx
	movl	-56(%rbp), %edx
	movq	-80(%rbp), %rsi
	movq	-96(%rbp), %rax
	movq	%rcx, %r8
	movl	%edx, %ecx
	leaq	.LC27(%rip), %rdx
	movq	%rax, %rdi
	movl	$0, %eax
	call	_Z13WriteToOutputP11output_dataP12memory_arenaPKcz
	.loc 9 63 0
	movq	-64(%rbp), %rcx
	movl	-56(%rbp), %edx
	movq	-80(%rbp), %rsi
	movq	-96(%rbp), %rax
	movq	%rcx, %r8
	movl	%edx, %ecx
	leaq	.LC28(%rip), %rdx
	movq	%rax, %rdi
	movl	$0, %eax
	call	_Z13WriteToOutputP11output_dataP12memory_arenaPKcz
	.loc 9 71 0
	movq	-64(%rbp), %rcx
	movl	-56(%rbp), %edx
	movq	-80(%rbp), %rsi
	movq	-96(%rbp), %rax
	movq	%rcx, %r8
	movl	%edx, %ecx
	leaq	.LC29(%rip), %rdx
	movq	%rax, %rdi
	movl	$0, %eax
	call	_Z13WriteToOutputP11output_dataP12memory_arenaPKcz
	.loc 9 81 0
	movq	-64(%rbp), %rcx
	movl	-56(%rbp), %edx
	movl	-68(%rbp), %edi
	movq	-80(%rbp), %rsi
	movq	-96(%rbp), %rax
	movl	%edi, %r9d
	movq	%rcx, %r8
	movl	%edx, %ecx
	leaq	.LC30(%rip), %rdx
	movq	%rax, %rdi
	movl	$0, %eax
	call	_Z13WriteToOutputP11output_dataP12memory_arenaPKcz
	.loc 9 94 0
	movq	-64(%rbp), %rcx
	movl	-56(%rbp), %r9d
	movq	-64(%rbp), %r8
	movl	-56(%rbp), %edx
	movq	-80(%rbp), %rsi
	movq	-96(%rbp), %rax
	movl	-68(%rbp), %edi
	pushq	%rdi
	pushq	%rcx
	movl	%edx, %ecx
	leaq	.LC31(%rip), %rdx
	movq	%rax, %rdi
	movl	$0, %eax
	call	_Z13WriteToOutputP11output_dataP12memory_arenaPKcz
	addq	$16, %rsp
	.loc 9 117 0
	movq	-64(%rbp), %r10
	movl	-56(%rbp), %r9d
	movq	-64(%rbp), %r8
	movl	-56(%rbp), %edi
	movq	-64(%rbp), %rcx
	movl	-56(%rbp), %r12d
	movq	-64(%rbp), %rbx
	movl	-56(%rbp), %edx
	movq	-80(%rbp), %rsi
	movq	-96(%rbp), %rax
	movl	-68(%rbp), %r11d
	pushq	%r11
	pushq	%r10
	pushq	%r9
	pushq	%r8
	pushq	%rdi
	pushq	%rcx
	movl	%r12d, %r9d
	movq	%rbx, %r8
	movl	%edx, %ecx
	leaq	.LC32(%rip), %rdx
	movq	%rax, %rdi
	movl	$0, %eax
	call	_Z13WriteToOutputP11output_dataP12memory_arenaPKcz
	addq	$48, %rsp
	.loc 9 144 0
	movq	-80(%rbp), %rcx
	movq	-96(%rbp), %rax
	leaq	.LC26(%rip), %rdx
	movq	%rcx, %rsi
	movq	%rax, %rdi
	movl	$0, %eax
	call	_Z13WriteToOutputP11output_dataP12memory_arenaPKcz
	.loc 9 147 0
	nop
	leaq	-40(%rbp), %rsp
	popq	%rbx
	popq	%r12
	popq	%r13
	popq	%r14
	popq	%r15
	popq	%rbp
	.cfi_def_cfa 7, 8
	ret
	.cfi_endproc
.LFE96:
	.size	_Z19WriteQueueFunctions13abs_stringptrjP12memory_arenaP11output_dataS3_, .-_Z19WriteQueueFunctions13abs_stringptrjP12memory_arenaP11output_dataS3_
	.section	.rodata
	.align 8
.LC33:
	.string	"jsmntok_t *JsonToObject(memory_arena *VolatileMemory, char const *Json, size_t JsonLength, jsmntok_t *TokenArray, %.*s *ObjectOut, u32 Unused);\n"
	.align 8
.LC34:
	.string	"u32\nPushJson(char *Json, u32 MaxLength, char const *Tag, %.*s Type, u32 JsonFlags);\n"
	.align 8
.LC35:
	.ascii	"u32\nPushJson(char *Json, u32 MaxLength, char const *Tag, %"
	.string	".*s Type, u32 JsonFlags = 0)\n{\n    u32 Length = 0;\n    b8 isLast = (JsonFlags & JSON_IsLastInList);\n    Length += stbsp_snprintf(Json, MaxLength, \"\\\"%%s\\\":\\\"%%s\\\"\", Tag, EnumToCString(Type));\n    if(!isLast) { Json[Length++] = ','; }\n    return Length;\n}\n\n"
	.align 8
.LC36:
	.string	"jsmntok_t *JsonToObject(memory_arena *VolatileMemory, char const *Json, size_t JsonLength, jsmntok_t *TokenArray, %.*s *ObjectOut, u32 Unused)\n"
	.align 8
.LC37:
	.ascii	"{\n    %.*s Result = static_cast<%.*s>(0);\n    s32 NumToken"
	.ascii	"sUsed = 0;\n    \n    s32 TotalTokens = ParseJson(VolatileMe"
	.ascii	"mory, Json, JsonLength, &TokenArray);\n    if(TokenArray)\n "
	.ascii	"   {\n        s32 Index = 0;\n        if((TokenArray[Index]."
	.ascii	"type == JSMN_OBJECT) &&\n           (TotalTokens > 1))\n    "
	.ascii	"    {\n            ++Index;\n        }\n        if(TokenArra"
	.ascii	"y[Index].type == JSMN_STRING)\n        {\n            s32 To"
	.ascii	"kenLength = (TokenArray[Index].end - TokenArray[Index].start"
	.ascii	");\n            abs_stringptr EnumString = {&Json[TokenArray"
	.ascii	"[Index].start]"
	.string	", TokenLength};\n            Result = StringToEnum<%.*s>(EnumString);\n            NumTokensUsed = Index;\n        }\n        else \n        {\n            NumTokensUsed = Index;\n        }\n    }\n    *ObjectOut = Result;\n    return TokenArray + NumTokensUsed;\n}\n\n"
	.text
	.globl	_Z14CreateEnumJsonP9term_enumP3tagP12memory_arenaP11output_dataS6_
	.type	_Z14CreateEnumJsonP9term_enumP3tagP12memory_arenaP11output_dataS6_, @function
_Z14CreateEnumJsonP9term_enumP3tagP12memory_arenaP11output_dataS6_:
.LFB97:
	.file 10 "/home/amos/prog/c/amos_libraries/preprocessor/abp_enums.cpp"
	.loc 10 7 0
	.cfi_startproc
	pushq	%rbp
	.cfi_def_cfa_offset 16
	.cfi_offset 6, -16
	movq	%rsp, %rbp
	.cfi_def_cfa_register 6
	subq	$112, %rsp
	movq	%rdi, -72(%rbp)
	movq	%rsi, -80(%rbp)
	movq	%rdx, -88(%rbp)
	movq	%rcx, -96(%rbp)
	movq	%r8, -104(%rbp)
	.loc 10 7 0
	movq	%fs:40, %rax
	movq	%rax, -8(%rbp)
	xorl	%eax, %eax
	.loc 10 8 0
	movq	-88(%rbp), %rax
	movq	%rax, %rdi
	call	_Z24abm_BeginTemporaryMemoryP12memory_arena
	movq	%rax, -32(%rbp)
	movq	%rdx, -24(%rbp)
	.loc 10 9 0
	movl	$5120, -60(%rbp)
	.loc 10 10 0
	movq	-88(%rbp), %rax
	movl	$1, %edx
	movl	$5120, %esi
	movq	%rax, %rdi
	call	_Z13abm_PushSize_P12memory_arenama
	movq	%rax, -48(%rbp)
	.loc 10 11 0
	movq	-88(%rbp), %rax
	movl	$1, %edx
	movl	$5120, %esi
	movq	%rax, %rdi
	call	_Z13abm_PushSize_P12memory_arenama
	movq	%rax, -40(%rbp)
	.loc 10 12 0
	movq	-48(%rbp), %rax
	movb	$0, (%rax)
	.loc 10 13 0
	movq	-40(%rbp), %rax
	movb	$0, (%rax)
	.loc 10 14 0
	movl	$0, -56(%rbp)
	.loc 10 15 0
	movl	$0, -52(%rbp)
	.loc 10 18 0
	movq	-72(%rbp), %rax
	movl	144(%rax), %eax
	testl	%eax, %eax
	je	.L908
	.loc 10 21 0
	movq	-72(%rbp), %rax
	movq	(%rax), %rdx
	movq	-72(%rbp), %rax
	movl	8(%rax), %eax
	movl	$5120, %ecx
	subl	-56(%rbp), %ecx
	movl	%ecx, %r9d
	movl	-56(%rbp), %esi
	movq	-48(%rbp), %rcx
	leaq	(%rsi,%rcx), %rdi
	movq	%rdx, %r8
	movl	%eax, %ecx
	leaq	.LC33(%rip), %rdx
	movl	%r9d, %esi
	movl	$0, %eax
	call	stbsp_snprintf
	addl	%eax, -56(%rbp)
	.loc 10 24 0
	movq	-72(%rbp), %rax
	movq	(%rax), %rdx
	movq	-72(%rbp), %rax
	movl	8(%rax), %eax
	movl	$5120, %ecx
	subl	-56(%rbp), %ecx
	movl	%ecx, %r9d
	movl	-56(%rbp), %esi
	movq	-48(%rbp), %rcx
	leaq	(%rsi,%rcx), %rdi
	movq	%rdx, %r8
	movl	%eax, %ecx
	leaq	.LC34(%rip), %rdx
	movl	%r9d, %esi
	movl	$0, %eax
	call	stbsp_snprintf
	addl	%eax, -56(%rbp)
	.loc 10 29 0
	movq	-72(%rbp), %rax
	movq	(%rax), %rdx
	movq	-72(%rbp), %rax
	movl	8(%rax), %eax
	movl	$5120, %ecx
	subl	-52(%rbp), %ecx
	movl	%ecx, %r9d
	movl	-52(%rbp), %esi
	movq	-40(%rbp), %rcx
	leaq	(%rsi,%rcx), %rdi
	movq	%rdx, %r8
	movl	%eax, %ecx
	leaq	.LC35(%rip), %rdx
	movl	%r9d, %esi
	movl	$0, %eax
	call	stbsp_snprintf
	addl	%eax, -52(%rbp)
	.loc 10 43 0
	movq	-72(%rbp), %rax
	movq	(%rax), %rdx
	movq	-72(%rbp), %rax
	movl	8(%rax), %eax
	movl	$5120, %ecx
	subl	-52(%rbp), %ecx
	movl	%ecx, %r9d
	movl	-52(%rbp), %esi
	movq	-40(%rbp), %rcx
	leaq	(%rsi,%rcx), %rdi
	movq	%rdx, %r8
	movl	%eax, %ecx
	leaq	.LC36(%rip), %rdx
	movl	%r9d, %esi
	movl	$0, %eax
	call	stbsp_snprintf
	addl	%eax, -52(%rbp)
	.loc 10 49 0
	movq	-72(%rbp), %rax
	movq	(%rax), %rsi
	movq	-72(%rbp), %rax
	movl	8(%rax), %ecx
	movq	-72(%rbp), %rax
	movq	(%rax), %rdx
	movq	-72(%rbp), %rax
	movl	8(%rax), %r9d
	movq	-72(%rbp), %rax
	movq	(%rax), %r8
	movq	-72(%rbp), %rax
	movl	8(%rax), %eax
	movl	$5120, %edi
	subl	-52(%rbp), %edi
	movl	%edi, %r11d
	movl	-52(%rbp), %r10d
	movq	-40(%rbp), %rdi
	addq	%r10, %rdi
	subq	$8, %rsp
	pushq	%rsi
	pushq	%rcx
	pushq	%rdx
	movl	%eax, %ecx
	leaq	.LC37(%rip), %rdx
	movl	%r11d, %esi
	movl	$0, %eax
	call	stbsp_snprintf
	addq	$32, %rsp
	addl	%eax, -52(%rbp)
	.loc 10 84 0
	movl	-52(%rbp), %edx
	movq	-40(%rbp), %rax
	addq	%rdx, %rax
	movb	$0, (%rax)
	.loc 10 86 0
	movq	-48(%rbp), %rdx
	movq	-88(%rbp), %rcx
	movq	-96(%rbp), %rax
	movq	%rcx, %rsi
	movq	%rax, %rdi
	call	_Z12CopyToOutputP11output_dataP12memory_arenaPKc
	.loc 10 87 0
	movq	-40(%rbp), %rdx
	movq	-88(%rbp), %rcx
	movq	-104(%rbp), %rax
	movq	%rcx, %rsi
	movq	%rax, %rdi
	call	_Z12CopyToOutputP11output_dataP12memory_arenaPKc
	.loc 10 88 0
	movq	-32(%rbp), %rdx
	movq	-24(%rbp), %rax
	movq	%rdx, %rdi
	movq	%rax, %rsi
	call	_Z22abm_EndTemporaryMemory16temporary_memory
.L908:
	.loc 10 90 0
	nop
	movq	-8(%rbp), %rax
	xorq	%fs:40, %rax
	je	.L907
	call	__stack_chk_fail@PLT
.L907:
	leave
	.cfi_def_cfa 7, 8
	ret
	.cfi_endproc
.LFE97:
	.size	_Z14CreateEnumJsonP9term_enumP3tagP12memory_arenaP11output_dataS6_, .-_Z14CreateEnumJsonP9term_enumP3tagP12memory_arenaP11output_dataS6_
	.section	.rodata
	.align 8
.LC38:
	.string	"const char *EnumToLabel_%.*s(%.*s EnumToken);\n//const char * %.*s_Label%.*s[%.*s_Count];\n"
	.align 8
.LC39:
	.string	"const char * %.*s_Label%.*s[%.*s_Count] = \n{\n"
.LC40:
	.string	"    \"%.*s\",\n"
.LC41:
	.string	"};\n\n"
	.align 8
.LC42:
	.string	"const char *\nEnumToLabel_%.*s(%.*s EnumToken)\n{\n    return %.*s_Label%.*s[int(EnumToken)];\n}\n\n"
	.text
	.globl	_Z16CreateEnumLabelsP9term_enumP3tagP12memory_arenaP11output_dataS6_
	.type	_Z16CreateEnumLabelsP9term_enumP3tagP12memory_arenaP11output_dataS6_, @function
_Z16CreateEnumLabelsP9term_enumP3tagP12memory_arenaP11output_dataS6_:
.LFB98:
	.loc 10 94 0
	.cfi_startproc
	pushq	%rbp
	.cfi_def_cfa_offset 16
	.cfi_offset 6, -16
	movq	%rsp, %rbp
	.cfi_def_cfa_register 6
	pushq	%r14
	pushq	%r13
	pushq	%r12
	pushq	%rbx
	subq	$144, %rsp
	.cfi_offset 14, -24
	.cfi_offset 13, -32
	.cfi_offset 12, -40
	.cfi_offset 3, -48
	movq	%rdi, -136(%rbp)
	movq	%rsi, -144(%rbp)
	movq	%rdx, -152(%rbp)
	movq	%rcx, -160(%rbp)
	movq	%r8, -168(%rbp)
	.loc 10 94 0
	movq	%fs:40, %rax
	movq	%rax, -40(%rbp)
	xorl	%eax, %eax
	.loc 10 95 0
	movq	-152(%rbp), %rax
	movq	%rax, %rdi
	call	_Z24abm_BeginTemporaryMemoryP12memory_arena
	movq	%rax, -80(%rbp)
	movq	%rdx, -72(%rbp)
	.loc 10 96 0
	movl	$10240, -120(%rbp)
	.loc 10 97 0
	movq	-152(%rbp), %rax
	movl	$1, %edx
	movl	$10240, %esi
	movq	%rax, %rdi
	call	_Z13abm_PushSize_P12memory_arenama
	movq	%rax, -96(%rbp)
	.loc 10 98 0
	movq	-152(%rbp), %rax
	movl	$1, %edx
	movl	$10240, %esi
	movq	%rax, %rdi
	call	_Z13abm_PushSize_P12memory_arenama
	movq	%rax, -88(%rbp)
	.loc 10 99 0
	movq	-96(%rbp), %rax
	movb	$0, (%rax)
	.loc 10 100 0
	movq	-88(%rbp), %rax
	movb	$0, (%rax)
	.loc 10 101 0
	movl	$0, -124(%rbp)
	.loc 10 102 0
	movl	$0, -116(%rbp)
.LBB304:
	.loc 10 105 0
	movq	-136(%rbp), %rax
	movl	144(%rax), %eax
	testl	%eax, %eax
	je	.L910
.LBB305:
	.loc 10 111 0
	movq	-136(%rbp), %rax
	movq	(%rax), %r10
	movq	-136(%rbp), %rax
	movl	8(%rax), %r9d
	movq	-144(%rbp), %rax
	movq	16(%rax), %r8
	movq	-144(%rbp), %rax
	movl	24(%rax), %edi
	movq	-136(%rbp), %rax
	movq	(%rax), %rsi
	movq	-136(%rbp), %rax
	movl	8(%rax), %ecx
	movq	-136(%rbp), %rax
	movq	(%rax), %rdx
	movq	-136(%rbp), %rax
	movl	8(%rax), %r12d
	movq	-144(%rbp), %rax
	movq	16(%rax), %rbx
	movq	-144(%rbp), %rax
	movl	24(%rax), %eax
	movl	$10240, %r11d
	subl	-124(%rbp), %r11d
	movl	%r11d, %r14d
	movl	-124(%rbp), %r13d
	movq	-96(%rbp), %r11
	addq	%r13, %r11
	subq	$8, %rsp
	pushq	%r10
	pushq	%r9
	pushq	%r8
	pushq	%rdi
	pushq	%rsi
	pushq	%rcx
	pushq	%rdx
	movl	%r12d, %r9d
	movq	%rbx, %r8
	movl	%eax, %ecx
	leaq	.LC38(%rip), %rdx
	movl	%r14d, %esi
	movq	%r11, %rdi
	movl	$0, %eax
	call	stbsp_snprintf
	addq	$64, %rsp
	addl	%eax, -124(%rbp)
	.loc 10 120 0
	movq	-136(%rbp), %rax
	movq	(%rax), %rsi
	movq	-136(%rbp), %rax
	movl	8(%rax), %ecx
	movq	-144(%rbp), %rax
	movq	16(%rax), %rdx
	movq	-144(%rbp), %rax
	movl	24(%rax), %r9d
	movq	-136(%rbp), %rax
	movq	(%rax), %r8
	movq	-136(%rbp), %rax
	movl	8(%rax), %eax
	movl	$10240, %edi
	subl	-124(%rbp), %edi
	movl	%edi, %r11d
	movl	-124(%rbp), %r10d
	movq	-96(%rbp), %rdi
	addq	%r10, %rdi
	subq	$8, %rsp
	pushq	%rsi
	pushq	%rcx
	pushq	%rdx
	movl	%eax, %ecx
	leaq	.LC39(%rip), %rdx
	movl	%r11d, %esi
	movl	$0, %eax
	call	stbsp_snprintf
	addq	$32, %rsp
	addl	%eax, -124(%rbp)
	.loc 10 128 0
	movq	-136(%rbp), %rax
	movq	128(%rax), %rax
	movq	%rax, -112(%rbp)
.L916:
	.loc 10 129 0
	movq	-136(%rbp), %rax
	addq	$64, %rax
	cmpq	%rax, -112(%rbp)
	je	.L911
.LBB306:
	.loc 10 131 0
	movq	$0, -64(%rbp)
	movl	$0, -56(%rbp)
	.loc 10 132 0
	movq	-112(%rbp), %rax
	movq	48(%rax), %rax
	movq	%rax, -104(%rbp)
.L914:
	.loc 10 133 0
	movq	-112(%rbp), %rax
	addq	$16, %rax
	cmpq	%rax, -104(%rbp)
	je	.L912
	.loc 10 135 0
	movq	-144(%rbp), %rax
	movq	24(%rax), %rdx
	movq	16(%rax), %rax
	movq	-104(%rbp), %rcx
	movq	(%rcx), %rdi
	movq	8(%rcx), %rsi
	movq	%rdx, %rcx
	movq	%rax, %rdx
	call	_Z19abs_AreStringsEqual13abs_stringptrS_
	testb	%al, %al
	setne	%al
	testb	%al, %al
	je	.L913
	.loc 10 137 0
	movq	-104(%rbp), %rax
	movq	16(%rax), %rdx
	movq	%rdx, -64(%rbp)
	movl	24(%rax), %eax
	movl	%eax, -56(%rbp)
	.loc 10 138 0
	jmp	.L912
.L913:
	.loc 10 140 0
	movq	-104(%rbp), %rax
	movq	32(%rax), %rax
	movq	%rax, -104(%rbp)
	.loc 10 133 0
	jmp	.L914
.L912:
	.loc 10 143 0
	movl	-56(%rbp), %eax
	testl	%eax, %eax
	jne	.L915
	.loc 10 145 0
	movq	-112(%rbp), %rax
	movq	(%rax), %rdx
	movq	%rdx, -64(%rbp)
	movl	8(%rax), %eax
	movl	%eax, -56(%rbp)
.L915:
	.loc 10 148 0
	movq	-64(%rbp), %rdx
	movl	-56(%rbp), %eax
	movl	$10240, %ecx
	subl	-124(%rbp), %ecx
	movl	%ecx, %r9d
	movl	-124(%rbp), %esi
	movq	-96(%rbp), %rcx
	leaq	(%rsi,%rcx), %rdi
	movq	%rdx, %r8
	movl	%eax, %ecx
	leaq	.LC40(%rip), %rdx
	movl	%r9d, %esi
	movl	$0, %eax
	call	stbsp_snprintf
	addl	%eax, -124(%rbp)
	.loc 10 152 0
	movq	-112(%rbp), %rax
	movq	64(%rax), %rax
	movq	%rax, -112(%rbp)
.LBE306:
	.loc 10 129 0
	jmp	.L916
.L911:
	.loc 10 155 0
	movl	$10240, %eax
	subl	-124(%rbp), %eax
	movl	%eax, %ecx
	movl	-124(%rbp), %edx
	movq	-96(%rbp), %rax
	addq	%rdx, %rax
	leaq	.LC41(%rip), %rdx
	movl	%ecx, %esi
	movq	%rax, %rdi
	movl	$0, %eax
	call	stbsp_snprintf
	addl	%eax, -124(%rbp)
	.loc 10 157 0
	movq	-144(%rbp), %rax
	movq	16(%rax), %r8
	movq	-144(%rbp), %rax
	movl	24(%rax), %edi
	movq	-136(%rbp), %rax
	movq	(%rax), %rsi
	movq	-136(%rbp), %rax
	movl	8(%rax), %ecx
